         0  1  2  3  4  5  6  7  8  9  A  B  C  D  E  F
000000: 00 01 40 00 00 00 04 00 60 00 FF FE 60 00 FF FE       ..@.....`...`...
000010: 60 00 FF FE 60 00 FF FE 60 00 FF FE 60 00 FF FE       `...`...`...`...
000020: 60 00 FF FE 60 00 FF FE 60 00 FF FE 60 00 FF FE       `...`...`...`...
000030: 60 00 FF FE 60 00 FF FE 60 00 FF FE 60 00 FF FE       `...`...`...`...
000040: FF FF FF FF FF FF FF FF FF FF FF FF FF FF FF FF       ................
000050: FF FF FF FF FF FF FF FF FF FF FF FF FF FF FF FF       ................
000060: FF FF FF FF FF FF FF FF FF FF FF FF FF FF FF FF       ................
000070: FF FF FF FF FF FF FF FF FF FF FF FF FF FF FF FF       ................
000080: FF FF FF FF FF FF FF FF FF FF FF FF FF FF FF FF       ................
000090: FF FF FF FF FF FF FF FF FF FF FF FF FF FF FF FF       ................
0000A0: FF FF FF FF FF FF FF FF FF FF FF FF FF FF FF FF       ................
0000B0: FF FF FF FF FF FF FF FF FF FF FF FF FF FF FF FF       ................
0000C0: FF FF FF FF FF FF FF FF FF FF FF FF FF FF FF FF       ................
0000D0: FF FF FF FF FF FF FF FF FF FF FF FF FF FF FF FF       ................
0000E0: FF FF FF FF FF FF FF FF FF FF FF FF FF FF FF FF       ................
0000F0: FF FF FF FF FF FF FF FF FF FF FF FF FF FF FF FF       ................
000100: FF FF FF FF FF FF FF FF FF FF FF FF FF FF FF FF       ................
000110: FF FF FF FF FF FF FF FF FF FF FF FF FF FF FF FF       ................
000120: FF FF FF FF FF FF FF FF FF FF FF FF FF FF FF FF       ................
000130: FF FF FF FF FF FF FF FF FF FF FF FF FF FF FF FF       ................
000140: FF FF FF FF FF FF FF FF FF FF FF FF FF FF FF FF       ................
000150: FF FF FF FF FF FF FF FF FF FF FF FF FF FF FF FF       ................
000160: FF FF FF FF FF FF FF FF FF FF FF FF FF FF FF FF       ................
000170: FF FF FF FF FF FF FF FF FF FF FF FF FF FF FF FF       ................
000180: FF FF FF FF FF FF FF FF FF FF FF FF FF FF FF FF       ................
000190: FF FF FF FF FF FF FF FF FF FF FF FF FF FF FF FF       ................
0001A0: FF FF FF FF FF FF FF FF FF FF FF FF FF FF FF FF       ................
0001B0: FF FF FF FF FF FF FF FF FF FF FF FF FF FF FF FF       ................
0001C0: FF FF FF FF FF FF FF FF FF FF FF FF FF FF FF FF       ................
0001D0: FF FF FF FF FF FF FF FF FF FF FF FF FF FF FF FF       ................
0001E0: FF FF FF FF FF FF FF FF FF FF FF FF FF FF FF FF       ................
0001F0: FF FF FF FF FF FF FF FF FF FF FF FF FF FF FF FF       ................
000200: FF FF FF FF FF FF FF FF FF FF FF FF FF FF FF FF       ................
000210: FF FF FF FF FF FF FF FF FF FF FF FF FF FF FF FF       ................
000220: FF FF FF FF FF FF FF FF FF FF FF FF FF FF FF FF       ................
000230: FF FF FF FF FF FF FF FF FF FF FF FF FF FF FF FF       ................
000240: FF FF FF FF FF FF FF FF FF FF FF FF FF FF FF FF       ................
000250: FF FF FF FF FF FF FF FF FF FF FF FF FF FF FF FF       ................
000260: FF FF FF FF FF FF FF FF FF FF FF FF FF FF FF FF       ................
000270: FF FF FF FF FF FF FF FF FF FF FF FF FF FF FF FF       ................
000280: FF FF FF FF FF FF FF FF FF FF FF FF FF FF FF FF       ................
000290: FF FF FF FF FF FF FF FF FF FF FF FF FF FF FF FF       ................
0002A0: FF FF FF FF FF FF FF FF FF FF FF FF FF FF FF FF       ................
0002B0: FF FF FF FF FF FF FF FF FF FF FF FF FF FF FF FF       ................
0002C0: FF FF FF FF FF FF FF FF FF FF FF FF FF FF FF FF       ................
0002D0: FF FF FF FF FF FF FF FF FF FF FF FF FF FF FF FF       ................
0002E0: FF FF FF FF FF FF FF FF FF FF FF FF FF FF FF FF       ................
0002F0: FF FF FF FF FF FF FF FF FF FF FF FF FF FF FF FF       ................
000300: FF FF FF FF FF FF FF FF FF FF FF FF FF FF FF FF       ................
000310: FF FF FF FF FF FF FF FF FF FF FF FF FF FF FF FF       ................
000320: FF FF FF FF FF FF FF FF FF FF FF FF FF FF FF FF       ................
000330: FF FF FF FF FF FF FF FF FF FF FF FF FF FF FF FF       ................
000340: FF FF FF FF FF FF FF FF FF FF FF FF FF FF FF FF       ................
000350: FF FF FF FF FF FF FF FF FF FF FF FF FF FF FF FF       ................
000360: FF FF FF FF FF FF FF FF FF FF FF FF FF FF FF FF       ................
000370: FF FF FF FF FF FF FF FF FF FF FF FF FF FF FF FF       ................
000380: FF FF FF FF FF FF FF FF FF FF FF FF FF FF FF FF       ................
000390: FF FF FF FF FF FF FF FF FF FF FF FF FF FF FF FF       ................
0003A0: FF FF FF FF FF FF FF FF FF FF FF FF FF FF FF FF       ................
0003B0: FF FF FF FF FF FF FF FF FF FF FF FF FF FF FF FF       ................
0003C0: FF FF FF FF FF FF FF FF FF FF FF FF FF FF FF FF       ................
0003D0: FF FF FF FF FF FF FF FF FF FF FF FF FF FF FF FF       ................
0003E0: FF FF FF FF FF FF FF FF FF FF FF FF FF FF FF FF       ................
0003F0: FF FF FF FF FF FF FF FF FF FF FF FF FF FF FF          ...............

000400: 2E7C 0001 4000      movea.l  #$14000, A7
000406: 41F9 0001 F000      lea  $0001F000, A0
00040C: 5888                addq.l  #4, A0
00040E: 23C8 0001 F000      move.l  A0, $0001F000
000414: 2C7C 0000 0000      movea.l  #$0, A6
00041A: 4EB9 0000 30BC      jsr  sub_0x0030BC
000420: 4EB9 0000 1804      jsr  sub_0x001804
000426: 4E71                nop
000428: 60FC                bra.s  *j_0x000426  {000426}

         0  1  2  3  4  5  6  7  8  9  A  B  C  D  E  F
000420:                               4E                      N

00042C: 48E7 2020           movem.l  D2/A2, -(A7)
000430: 247C 0001 5026      movea.l  #$15026, A2
000436: 4EB9 0000 1116      jsr  sub_0x001116
00043C: 4EB9 0000 1812      jsr  sub_0x001812
000442: 4EBA 0B6C           jsr  sub_0x000FB0  {000FB0}
000446: 4E71                nop
000448: 4EB9 0000 1B4E      jsr  sub_0x001B4E
00044E: 4EB9 0000 1B36      jsr  sub_0x001B36
000454: 4A80                tst.l  D0
000456: 671E                beq.s  *cc_0x000476  {000476}
000458: 7001                moveq  #$1, D0
00045A: 2480                move.l  D0, (A2)
00045C: 23FC 0000 04B0 0001 move.l  #$4b0, $0001501E
000466: 42B9 0001 5012      clr.l  $00015012
00046C: 700F                moveq  #$F, D0
00046E: 23C0 0001 500E      move.l  D0, $0001500E
000474: 6002                bra.s  *j_0x000478  {000478}
000476: 4292                clr.l  (A2)
000478: 4878 0005           pea  $0005
00047C: 4EB9 0000 123E      jsr  sub_0x00123E
000482: 588F                addq.l  #4, A7
000484: 7400                moveq  #$0, D2
000486: 6022                bra.s  *j_0x0004AA  {0004AA}
000488: 4EBA 0728           jsr  sub_0x000BB2  {000BB2}
00048C: 4E71                nop
00048E: 2012                move.l  (A2), D0
000490: 6D18                blt.s  *j_0x0004AA  {0004AA}
000492: 6F08                ble.s  *cc_0x00049C  {00049C}
000494: 7201                moveq  #$1, D1
000496: B280                cmp.l  D0, D1
000498: 6610                bne.s  *j_0x0004AA  {0004AA}
00049A: 6008                bra.s  *j_0x0004A4  {0004A4}
00049C: 4EBA 00BC           jsr  sub_0x00055A  {00055A}
0004A0: 4E71                nop
0004A2: 6006                bra.s  *j_0x0004AA  {0004AA}
0004A4: 4EBA 05A4           jsr  sub_0x000A4A  {000A4A}
0004A8: 4E71                nop
0004AA: 4A82                tst.l  D2
0004AC: 67DA                beq.s  *cc_0x000488  {000488}
0004AE: 4CDF 0404           movem.l  (A7)+, D2/A2
0004B2: 4E75                rts
0004B4: 48E7 2020           movem.l  D2/A2, -(A7)
0004B8: 247C 0001 5016      movea.l  #$15016, A2
0004BE: 7400                moveq  #$0, D2
0004C0: 7003                moveq  #$3, D0
0004C2: 23C0 0001 500E      move.l  D0, $0001500E
0004C8: 4878 0005           pea  $0005
0004CC: 4EB9 0000 123E      jsr  sub_0x00123E
0004D2: 4879 0001 7000      pea  $00017000
0004D8: 4EBA 0972           jsr  sub_0x000E4C  {000E4C}
0004DC: 4E71                nop
0004DE: 4EBA 088C           jsr  sub_0x000D6C  {000D6C}
0004E2: 4E71                nop
0004E4: 4A80                tst.l  D0
0004E6: 508F                addq.l  #8, A7
0004E8: 6604                bne.s  *cc_0x0004EE  {0004EE}
0004EA: 6000 0066           bra  *j_0x000552  {000552}
0004EE: 70FF                moveq  #$-1, D0
0004F0: 2480                move.l  D0, (A2)
0004F2: 601E                bra.s  *j_0x000512  {000512}
0004F4: 4879 0001 7004      pea  $00017004
0004FA: 4EBA 0950           jsr  sub_0x000E4C  {000E4C}
0004FE: 4E71                nop
000500: 4EBA 06B0           jsr  sub_0x000BB2  {000BB2}
000504: 4E71                nop
000506: 5282                addq.l  #1, D2
000508: 588F                addq.l  #4, A7
00050A: 7005                moveq  #$5, D0
00050C: B082                cmp.l  D2, D0
00050E: 6C02                bge.s  *j_0x000512  {000512}
000510: 6040                bra.s  *j_0x000552  {000552}
000512: 7064                moveq  #$64, D0
000514: B092                cmp.l  (A2), D0
000516: 66DC                bne.s  *cc_0x0004F4  {0004F4}
000518: 4878 0006           pea  $0006
00051C: 4EB9 0000 123E      jsr  sub_0x00123E
000522: 588F                addq.l  #4, A7
000524: 6006                bra.s  *j_0x00052C  {00052C}
000526: 4EBA 068A           jsr  sub_0x000BB2  {000BB2}
00052A: 4E71                nop
00052C: 7067                moveq  #$67, D0
00052E: B092                cmp.l  (A2), D0
000530: 66F4                bne.s  *cc_0x000526  {000526}
000532: 4878 0002           pea  $0002
000536: 4EB9 0000 123E      jsr  sub_0x00123E
00053C: 588F                addq.l  #4, A7
00053E: 7001                moveq  #$1, D0
000540: B0B9 0001 501A      cmp.l  $0001501A, D0
000546: 670A                beq.s  *j_0x000552  {000552}
000548: 7001                moveq  #$1, D0
00054A: 23C0 0001 500E      move.l  D0, $0001500E
000550: 6002                bra.s  *j_0x000554  {000554}
000552: 7000                moveq  #$0, D0
000554: 4CDF 0404           movem.l  (A7)+, D2/A2
000558: 4E75                rts
00055A: 4E56 FFF8           link A6, #$-8
00055E: 48E7 2038           movem.l  D2/A2-A4, -(A7)
000562: 247C 0001 501A      movea.l  #$1501a, A2
000568: 287C 0000 0E7E      movea.l  #$e7e, A4
00056E: 267C 0001 5000      movea.l  #$15000, A3
000574: 2039 0001 5016      move.l  $00015016, D0
00057A: 6D00 04C4           blt  *cc_0x000A40  {000A40}
00057E: 720E                moveq  #$E, D1
000580: B280                cmp.l  D0, D1
000582: 6D00 04BC           blt  *cc_0x000A40  {000A40}
000586: D080                add.l  D0, D0
000588: 303B 0806           move.w  $6(PC,D0.L), D0
00058C: 4EFB 0002           jmp  $2(PC,D0.W)

         0  1  2  3  4  5  6  7  8  9  A  B  C  D  E  F
000590: 00 34 04 B0 01 08 00 A0 00 22 01 F0 02 4C 02 BC       .4......."...L..
0005A0: 03 00 03 A6 04 B0 04 76 04 82 04 8C 00 22 60 00       .......v....."`.
0005B0: 04 90 4E BA FF 00 4A 80 67 04 60 00 00 B8 70 04       ..N...J.g.`...p.
0005C0: 60 00 00 BA 48 79 00 01 70 08 4E BA 08 80 4E 71       `...Hy..p.N...Nq
0005D0: 4E BA 07 9A 4E 71 4A 80 58 8F 66 04 60 00 00 B4       N...NqJ.X.f.`...
0005E0: 70 04 B0 92 66 0C 70 00 52 80 0C 80 00 0F 42 40       p...f.p.R.....B@
0005F0: 6D F6 70 02 B0 B9 00 01 50 0E 66 32 48 79 00 01       m.p.....P.f2Hy..
000600: 70 0C 4E BA 08 48 4E 71 4E BA 07 62 4E 71 4A 80       p.N..HNqN..bNqJ.
000610: 58 8F 67 0C 70 03 B0 92 67 0A 70 0B B0 92 67 04       X.g.p...g.p...g.
000620: 60 00 00 70 4E BA 08 6E 4E 71 60 00 04 14 60 62       `..pN..nNq`...`b
000630: 4E B9 00 00 12 E4 52 B9 00 01 50 2E 48 79 00 01       N.....R...P.Hy..
000640: 70 10 4E BA 08 08 4E 71 4E BA 05 68 4E 71 58 8F       p.N...NqN..hNqX.
000650: 70 09 B0 92 66 06 4E BA 05 5A 4E 71 70 03 B0 92       p...f.N..ZNqp...
000660: 67 DA 70 02 B0 92 67 0C 70 0B B0 92 67 06 70 04       g.p...g.p...g.p.
000670: B0 92 66 12 4E BA 08 1E 4E 71 70 01 23 C0 00 01       ..f.N...Nqp.#...
000680: 50 0E 60 00 03 BC 70 01 B0 B9 00 01 50 2E 6C 02       P.`...p.....P.l.
000690: 60 E2 4E 94 60 00 03 AA 42 B9 00 01 50 2E 48 6E       `.N.`...B...P.Hn
0006A0: FF F8 20 6B 00 06 48 68 00 04 4E BA 08 36 4E 71       .. k..Hh..N..6Nq
0006B0: 48 79 00 01 70 14 4E BA 07 94 4E 71 4E BA 06 AE       Hy..p.N...NqN...
0006C0: 4E 71 4A 80 4F EF 00 0C 66 02 60 C6 70 04 B0 92       NqJ.O...f.`.p...
0006D0: 66 0C 70 00 52 80 0C 80 00 0F 42 40 6D F6 70 02       f.p.R.....B@m.p.
0006E0: B0 92 67 06 70 0B B0 92 66 08 70 01 23 C0 00 01       ..g.p...f.p.#...
0006F0: 50 0E 70 01 B0 B9 00 01 50 0E 67 02 60 94 48 79       P.p.....P.g.`.Hy
000700: 00 01 70 18 4E BA 07 46 4E 71 4E BA 05 FA 4E 71       ..p.N..FNqN...Nq
000710: 4A 80 58 8F 66 04 60 00 FF 7A 48 6E FF F8 48 79       J.X.f.`..zHn..Hy
000720: 00 01 70 1C 48 79 00 01 50 72 4E B9 00 00 21 F2       ..p.Hy..PrN...!.
000730: 48 79 00 01 50 72 2F 3C 00 04 00 10 4E B9 00 00       Hy..Pr/<....N...
000740: 19 BC 4E BA 05 C2 4E 71 4A 80 4F EF 00 14 66 04       ..N...NqJ.O...f.
000750: 60 00 FF 40 2F 39 00 01 50 1E 4E B9 00 00 12 F2       `..@/9..P.N.....
000760: 2F 39 00 01 50 12 4E B9 00 00 13 1A 4E B9 00 00       /9..P.N.....N...
000770: 12 D6 4E BA 07 20 4E 71 50 8F 70 02 60 00 FE FE       ..N.. NqP.p.`...
000780: 48 79 00 01 70 26 4E BA 06 C4 4E 71 4E BA 05 DE       Hy..p&N...NqN...
000790: 4E 71 4A 80 58 8F 66 04 60 00 FE F8 70 04 B0 92       NqJ.X.f.`...p...
0007A0: 66 0C 70 00 52 80 0C 80 00 0F 42 40 6D F6 2F 12       f.p.R.....B@m./.
0007B0: 48 79 00 01 70 2A 48 79 00 01 50 B2 4E B9 00 00       Hy..p*Hy..P.N...
0007C0: 21 F2 48 79 00 01 50 B2 2F 3C 00 04 00 00 4E B9       !.Hy..P./<....N.
0007D0: 00 00 19 BC 4F EF 00 14 60 00 02 66 20 6B 00 06       ....O...`..f k..
0007E0: 48 68 00 04 48 79 00 01 70 34 48 79 00 01 50 72       Hh..Hy..p4Hy..Pr
0007F0: 4E B9 00 00 21 F2 48 79 00 01 70 3E 4E BA 06 4E       N...!.Hy..p>N..N
000800: 4E 71 4E BA 05 68 4E 71 4A 80 4F EF 00 10 66 04       NqN..hNqJ.O...f.
000810: 60 00 FE 80 70 04 B0 92 66 0C 70 00 52 80 0C 80       `...p...f.p.R...
000820: 00 0F 42 40 6D F6 48 79 00 01 50 72 2F 3C 00 04       ..B@m.Hy..Pr/<..
000830: 00 10 4E B9 00 00 19 BC 4E BA 04 CC 4E 71 4A 80       ..N.....N...NqJ.
000840: 50 8F 66 04 60 00 FE 4C 60 00 FD DA 48 79 00 01       P.f.`..L`...Hy..
000850: 70 52 48 79 00 01 70 4C 4E B9 00 00 16 D4 58 8F       pRHy..pLN.....X.
000860: 52 80 2F 00 48 79 00 01 70 42 48 79 00 01 50 B2       R./.Hy..pBHy..P.
000870: 4E B9 00 00 21 F2 48 79 00 01 50 B2 2F 3C 00 04       N...!.Hy..P./<..
000880: 00 00 4E B9 00 00 19 BC 4F EF 00 18 60 00 01 B2       ..N.....O...`...
000890: 74 00 20 6B 00 06 0C 28 00 30 00 04 66 1E 20 6B       t. k...(.0..f. k
0008A0: 00 06 0C 28 00 32 00 05 66 12 20 6B 00 06 48 68       ...(.2..f. k..Hh
0008B0: 00 06 4E BA 07 38 4E 71 58 8F 24 00 20 6B 00 06       ..N..8NqX.$. k..
0008C0: 48 68 00 04 48 79 00 01 70 58 48 79 00 01 50 72       Hh..Hy..pXHy..Pr
0008D0: 4E B9 00 00 21 F2 48 79 00 01 70 62 4E BA 05 6E       N...!.Hy..pbN..n
0008E0: 4E 71 4E BA 04 88 4E 71 4A 80 4F EF 00 10 66 04       NqN...NqJ.O...f.
0008F0: 60 00 FD A0 70 04 B0 92 66 0C 70 00 52 80 0C 80       `...p...f.p.R...
000900: 00 0F 42 40 6D F6 48 79 00 01 50 72 2F 3C 00 04       ..B@m.Hy..Pr/<..
000910: 00 10 4E B9 00 00 19 BC 4E BA 03 EC 4E 71 4A 80       ..N.....N...NqJ.
000920: 50 8F 66 04 60 00 FD 6C 4A 82 67 06 23 C2 00 01       P.f.`..lJ.g.#...
000930: 50 1E 60 00 FC F0 20 6B 00 06 48 68 00 04 48 79       P.`... k..Hh..Hy
000940: 00 01 70 66 48 79 00 01 50 72 4E B9 00 00 21 F2       ..pfHy..PrN...!.
000950: 48 79 00 01 70 70 4E BA 04 F4 4E 71 4E BA 04 0E       Hy..ppN...NqN...
000960: 4E 71 4A 80 4F EF 00 10 66 04 60 00 FD 26 70 04       NqJ.O...f.`..&p.
000970: B0 92 66 0C 70 00 52 80 0C 80 00 0F 42 40 6D F6       ..f.p.R.....B@m.
000980: 48 79 00 01 50 72 2F 3C 00 04 00 10 4E B9 00 00       Hy..Pr/<....N...
000990: 19 BC 4E BA 04 2A 4E 71 4A 80 50 8F 66 04 60 00       ..N..*NqJ.P.f.`.
0009A0: FC F2 2F 2B 00 06 4E B9 00 00 16 D4 58 8F 5D 80       ../+..N.....X.].
0009B0: 2F 00 48 79 00 01 70 74 48 79 00 01 50 B2 4E B9       /.Hy..ptHy..P.N.
0009C0: 00 00 21 F2 4F EF 00 0C 74 06 24 42 60 16 20 0A       ..!.O...t.$B`. .
0009D0: 53 80 20 7C 00 01 50 B2 22 2B 00 06 11 B2 18 00       S. |..P."+......
0009E0: 08 00 52 8A 20 2B 00 06 0C 32 00 7D 08 00 66 DE       ..R. +...2.}..f.
0009F0: 20 0A 53 80 20 7C 00 01 50 B2 42 30 08 00 48 79        .S. |..P.B0..Hy
000A00: 00 01 50 B2 60 2C 70 01 23 C0 00 01 50 12 60 00       ..P.`,p.#...P.`.
000A10: FC 14 42 B9 00 01 50 12 60 00 FC 0A 4A B9 00 01       ..B...P.`...J...
000A20: 50 12 66 08 48 79 00 01 70 7A 60 06 48 79 00 01       P.f.Hy..pz`.Hy..
000A30: 70 86 2F 3C 00 04 00 00 4E B9 00 00 19 BC 50          p./<....N.....P

000A40: 4CEE 1C04 FFE8      movem.l  $-18(A6), D2/A2-A4
000A46: 4E5E                unlk  A6
000A48: 4E75                rts
000A4A: 48E7 0038           movem.l  A2-A4, -(A7)
000A4E: 247C 0000 0E94      movea.l  #$e94, A2
000A54: 287C 0001 5012      movea.l  #$15012, A4
000A5A: 267C 0000 19BC      movea.l  #$19bc, A3
000A60: 2039 0001 5016      move.l  $00015016, D0
000A66: 6D00 00E0           blt  *cc_0x000B48  {000B48}
000A6A: 720E                moveq  #$E, D1
000A6C: B280                cmp.l  D0, D1
000A6E: 6D00 00D8           blt  *cc_0x000B48  {000B48}
000A72: D080                add.l  D0, D0
000A74: 303B 0806           move.w  $6(PC,D0.L), D0
000A78: 4EFB 0002           jmp  $2(PC,D0.W)

         0  1  2  3  4  5  6  7  8  9  A  B  C  D  E  F
000A70:                                     00 1E 00 CC                   ....
000A80: 00 34 00 22 00 1E 00 5E 00 1E 00 66 00 1E 00 1E       .4."...^...f....
000A90: 00 CC 00 A4 00 AA 00 B0 00 1E 60 00 00 8C 4E B9       ..........`...N.
000AA0: 00 00 12 E4 70 0F 23 C0 00 01 50 0E 60 00 00 7A       ....p.#...P.`..z
000AB0: 2F 39 00 01 50 1E 4E B9 00 00 12 F2 2F 14 4E B9       /9..P.N...../.N.
000AC0: 00 00 13 1A 4E B9 00 00 12 D6 4E 92 50 8F 70 02       ....N.....N.P.p.
000AD0: 23 C0 00 01 50 0E 60 00 00 70 48 79 00 01 70 94       #...P.`..pHy..p.
000AE0: 60 5C 48 79 00 01 70 AC 48 79 00 01 70 A6 4E B9       `\Hy..p.Hy..p.N.
000AF0: 00 00 16 D4 58 8F 52 80 2F 00 48 79 00 01 70 9C       ....X.R./.Hy..p.
000B00: 48 79 00 01 50 B2 4E B9 00 00 21 F2 48 79 00 01       Hy..P.N...!.Hy..
000B10: 50 B2 2F 3C 00 04 00 00 4E 93 4F EF 00 18 60 28       P./<....N.O...`(
000B20: 70 01 28 80 60 02 42 94 4E 92 60 1C 4A 94 66 08       p.(.`.B.N.`.J.f.
000B30: 48 79 00 01 70 B2 60 06 48 79 00 01 70 BE 2F 3C       Hy..p.`.Hy..p./<
000B40: 00 04 00 00 4E 93 50                                  ....N.P

000B48: 4CDF 1C00           movem.l  (A7)+, A2-A4
000B4C: 4E75                rts
000B4E: 207C 0000 19BC      movea.l  #$19bc, A0
000B54: 2039 0001 500E      move.l  $0001500E, D0
000B5A: 7201                moveq  #$1, D1
000B5C: B280                cmp.l  D0, D1
000B5E: 6E50                bgt.s  *cc_0x000BB0  {000BB0}
000B60: 7204                moveq  #$4, D1
000B62: B280                cmp.l  D0, D1
000B64: 6D12                blt.s  *cc_0x000B78  {000B78}
000B66: D080                add.l  D0, D0
000B68: 303B 0804           move.w  $4(PC,D0.L), D0
000B6C: 4EFB 0002           jmp  $2(PC,D0.W)

         0  1  2  3  4  5  6  7  8  9  A  B  C  D  E  F
000B70: 00 10 00 18 00 20 00                                  ..... .

000B78: 720F                moveq  #$F, D1
000B7A: B280                cmp.l  D0, D1
000B7C: 6632                bne.s  *cc_0x000BB0  {000BB0}
000B7E: 6020                bra.s  *j_0x000BA0  {000BA0}

         0  1  2  3  4  5  6  7  8  9  A  B  C  D  E  F
000B80: 48 79 00 01 70 CC 60 1E 48 79 00 01 70 D6 60 16       Hy..p.`.Hy..p.`.
000B90: 48 79 00 01 70 E4 60 0E 48 79 00 01 70 F2 60          Hy..p.`.Hy..p.`

000BA0: 4879 0001 7104      pea  $00017104
000BA6: 2F3C 0004 0000      move.l  #$40000, -(A7)
000BAC: 4E90                jsr  (A0)
000BAE: 508F                addq.l  #8, A7
000BB0: 4E75                rts
000BB2: 48E7 2030           movem.l  D2/A2-A3, -(A7)
000BB6: 267C 0001 5016      movea.l  #$15016, A3
000BBC: 247C 0001 5000      movea.l  #$15000, A2
000BC2: 4852                pea  (A2)
000BC4: 4EB9 0000 18F8      jsr  sub_0x0018F8
000BCA: 588F                addq.l  #4, A7
000BCC: 4A80                tst.l  D0
000BCE: 67F2                beq.s  *cc_0x000BC2  {000BC2}
000BD0: 202A 0002           move.l  $2(A2), D0
000BD4: 7201                moveq  #$1, D1
000BD6: B280                cmp.l  D0, D1
000BD8: 6E00 0114           bgt  *cc_0x000CEE  {000CEE}
000BDC: 6C0C                bge.s  *cc_0x000BEA  {000BEA}
000BDE: 7202                moveq  #$2, D1
000BE0: B280                cmp.l  D0, D1
000BE2: 6600 010A           bne  *cc_0x000CEE  {000CEE}
000BE6: 6000 009A           bra  *j_0x000C82  {000C82}
000BEA: 4878 0003           pea  $0003
000BEE: 4879 0001 7112      pea  $00017112
000BF4: 2F2A 0006           move.l  $6(A2), -(A7)
000BF8: 4EB9 0000 178C      jsr  sub_0x00178C
000BFE: 4FEF 000C           lea  $C(A7), A7
000C02: 4A80                tst.l  D0
000C04: 6600 0068           bne  *cc_0x000C6E  {000C6E}
000C08: 7400                moveq  #$0, D2
000C0A: 6056                bra.s  *j_0x000C62  {000C62}
000C0C: 4878 0002           pea  $0002
000C10: 2002                move.l  D2, D0
000C12: E580                asl.l  #2, D0
000C14: 207C 0001 7242      movea.l  #$17242, A0
000C1A: 2F30 0800           move.l  $0(A0,D0.L), -(A7)
000C1E: 206A 0006           movea.l  $6(A2), A0
000C22: 4868 0003           pea  $3(A0)
000C26: 4EB9 0000 178C      jsr  sub_0x00178C
000C2C: 4FEF 000C           lea  $C(A7), A7
000C30: 4A80                tst.l  D0
000C32: 662C                bne.s  *cc_0x000C60  {000C60}
000C34: 2002                move.l  D2, D0
000C36: 7264                moveq  #$64, D1
000C38: D081                add.l  D1, D0
000C3A: 2680                move.l  D0, (A3)
000C3C: 7068                moveq  #$68, D0
000C3E: B093                cmp.l  (A3), D0
000C40: 6706                beq.s  *cc_0x000C48  {000C48}
000C42: 7067                moveq  #$67, D0
000C44: B093                cmp.l  (A3), D0
000C46: 6620                bne.s  *j_0x000C68  {000C68}
000C48: 206A 0006           movea.l  $6(A2), A0
000C4C: 4868 0005           pea  $5(A0)
000C50: 4EBA 0332           jsr  sub_0x000F84  {000F84}
000C54: 4E71                nop
000C56: 588F                addq.l  #4, A7
000C58: 23C0 0001 501A      move.l  D0, $0001501A
000C5E: 6008                bra.s  *j_0x000C68  {000C68}
000C60: 5282                addq.l  #1, D2
000C62: 7005                moveq  #$5, D0
000C64: B082                cmp.l  D2, D0
000C66: 6EA4                bgt.s  *cc_0x000C0C  {000C0C}
000C68: 7005                moveq  #$5, D0
000C6A: B082                cmp.l  D2, D0
000C6C: 6606                bne.s  *cc_0x000C74  {000C74}
000C6E: 4EBA 023A           jsr  sub_0x000EAA  {000EAA}
000C72: 4E71                nop
000C74: 4878 0001           pea  $0001
000C78: 4EB9 0000 1A04      jsr  sub_0x001A04
000C7E: 6000 007E           bra  *j_0x000CFE  {000CFE}
000C82: 7400                moveq  #$0, D2
000C84: 602A                bra.s  *j_0x000CB0  {000CB0}
000C86: 4878 0004           pea  $0004
000C8A: 2002                move.l  D2, D0
000C8C: E580                asl.l  #2, D0
000C8E: 207C 0001 71AC      movea.l  #$171ac, A0
000C94: 2F30 0800           move.l  $0(A0,D0.L), -(A7)
000C98: 2F2A 0006           move.l  $6(A2), -(A7)
000C9C: 4EB9 0000 178C      jsr  sub_0x00178C
000CA2: 4FEF 000C           lea  $C(A7), A7
000CA6: 4A80                tst.l  D0
000CA8: 6604                bne.s  *cc_0x000CAE  {000CAE}
000CAA: 2682                move.l  D2, (A3)
000CAC: 6008                bra.s  *j_0x000CB6  {000CB6}
000CAE: 5282                addq.l  #1, D2
000CB0: 7010                moveq  #$10, D0
000CB2: B082                cmp.l  D2, D0
000CB4: 6ED0                bgt.s  *cc_0x000C86  {000C86}
000CB6: 7010                moveq  #$10, D0
000CB8: B082                cmp.l  D2, D0
000CBA: 6606                bne.s  *cc_0x000CC2  {000CC2}
000CBC: 4EBA 01EC           jsr  sub_0x000EAA  {000EAA}
000CC0: 4E71                nop
000CC2: 700A                moveq  #$A, D0
000CC4: B093                cmp.l  (A3), D0
000CC6: 6614                bne.s  *cc_0x000CDC  {000CDC}
000CC8: 4EBA FE84           jsr  $-17C(PC)  {000B4E}
000CCC: 4878 0002           pea  $0002
000CD0: 4EB9 0000 1A04      jsr  sub_0x001A04
000CD6: 588F                addq.l  #4, A7
000CD8: 6000 FEE8           bra  *cc_0x000BC2  {000BC2}
000CDC: 7001                moveq  #$1, D0
000CDE: B093                cmp.l  (A3), D0
000CE0: 6606                bne.s  *cc_0x000CE8  {000CE8}
000CE2: 4EBA 0330           jsr  sub_0x001014  {001014}
000CE6: 4E71                nop
000CE8: 4878 0002           pea  $0002
000CEC: 608A                bra.s  *j_0x000C78  {000C78}
000CEE: 70FF                moveq  #$-1, D0
000CF0: 2680                move.l  D0, (A3)
000CF2: 4879 0001 7116      pea  $00017116
000CF8: 4EB9 0000 1A70      jsr  sub_0x001A70
000CFE: 588F                addq.l  #4, A7
000D00: 4CDF 0C04           movem.l  (A7)+, D2/A2-A3
000D04: 4E75                rts

         0  1  2  3  4  5  6  7  8  9  A  B  C  D  E  F
000D00:                   4E BA FE AA 70 67 B0 B9 00 01             N...pg....
000D10: 50 16 67 F2 70 66 B0 B9 00 01 50 16 67 08 4E BA       P.g.pf....P.g.N.
000D20: F8 3A 70 00 60 44 20 79 00 01 50 06 0C 28 00 30       .:p.`D y..P..(.0
000D30: 00 05 67 34 20 79 00 01 50 06 10 28 00 05 48 80       ..g4 y..P..(..H.
000D40: 48 C0 2F 00 48 79 00 01 71 30 48 79 00 01 50 32       H./.Hy..q0Hy..P2
000D50: 4E B9 00 00 21 F2 48 79 00 01 50 32 4E B9 00 00       N...!.Hy..P2N...
000D60: 1A 70 4F EF 00 10 60 BA 70 01 4E                      .pO...`.p.N

000D6C: 2F02                move.l  D2, -(A7)
000D6E: 7400                moveq  #$0, D2
000D70: 4EBA FE40           jsr  $-1C0(PC)  {000BB2}
000D74: 6006                bra.s  *j_0x000D7C  {000D7C}
000D76: 4EBA FE3A           jsr  $-1C6(PC)  {000BB2}
000D7A: 5282                addq.l  #1, D2
000D7C: 7068                moveq  #$68, D0
000D7E: B0B9 0001 5016      cmp.l  $00015016, D0
000D84: 6706                beq.s  *cc_0x000D8C  {000D8C}
000D86: 7005                moveq  #$5, D0
000D88: B082                cmp.l  D2, D0
000D8A: 6CEA                bge.s  *cc_0x000D76  {000D76}
000D8C: 7005                moveq  #$5, D0
000D8E: B082                cmp.l  D2, D0
000D90: 6E26                bgt.s  *cc_0x000DB8  {000DB8}
000D92: 4879 0001 714A      pea  $0001714A
000D98: 4879 0001 5032      pea  $00015032
000D9E: 4EB9 0000 21F2      jsr  sub_0x0021F2
000DA4: 4879 0001 5032      pea  $00015032
000DAA: 4EB9 0000 1A70      jsr  sub_0x001A70
000DB0: 4FEF 000C           lea  $C(A7), A7
000DB4: 7000                moveq  #$0, D0
000DB6: 6002                bra.s  *j_0x000DBA  {000DBA}
000DB8: 7001                moveq  #$1, D0
000DBA: 241F                move.l  (A7)+, D2
000DBC: 4E75                rts

         0  1  2  3  4  5  6  7  8  9  A  B  C  D  E  F
000DB0:                                           48 E7                     H.
000DC0: 20 20 24 7C 00 01 50 32 74 00 4E BA FD E6 60 06         $|..P2t.N...`.
000DD0: 4E BA FD E0 52 82 70 65 B0 B9 00 01 50 16 67 06       N...R.pe....P.g.
000DE0: 70 05 B0 82 6C EA 70 05 B0 82 6E 1E 48 79 00 01       p...l.p...n.Hy..
000DF0: 71 58 48 52 4E B9 00 00 21 F2 48 52 4E B9 00 00       qXHRN...!.HRN...
000E00: 1A 70 4F EF 00 0C 70 00 60 3C 20 79 00 01 50 06       .pO...p.`< y..P.
000E10: 0C 28 00 30 00 05 67 2C 20 79 00 01 50 06 10 28       .(.0..g, y..P..(
000E20: 00 05 48 80 48 C0 2F 00 48 79 00 01 71 66 48 52       ..H.H./.Hy..qfHR
000E30: 4E B9 00 00 21 F2 48 52 4E B9 00 00 1A 70 4F EF       N...!.HRN....pO.
000E40: 00 10 60 C2 70 01 4C DF 04 04 4E                      ..`.p.L...N

000E4C: 4E56 FFC0           link A6, #$-40
000E50: 202E 0008           move.l  $8(A6), D0
000E54: 2F00                move.l  D0, -(A7)
000E56: 4879 0001 7180      pea  $00017180
000E5C: 486E FFC0           pea  $-40(A6)
000E60: 4EB9 0000 21F2      jsr  sub_0x0021F2
000E66: 486E FFC0           pea  $-40(A6)
000E6A: 2F3C 0004 0010      move.l  #$40010, -(A7)
000E70: 4EB9 0000 19BC      jsr  sub_0x0019BC
000E76: 4FEF 0014           lea  $14(A7), A7
000E7A: 4E5E                unlk  A6
000E7C: 4E75                rts

         0  1  2  3  4  5  6  7  8  9  A  B  C  D  E  F
000E70:                                           48 79                     Hy
000E80: 00 01 71 88 2F 3C 00 04 00 00 4E B9 00 00 19 BC       ..q./<....N.....
000E90: 50 8F 4E 75 48 79 00 01 71 8E 2F 3C 00 04 00 00       P.NuHy..q./<....
000EA0: 4E B9 00 00 19 BC 50 8F 4E                            N.....P.N

000EAA: 70FF                moveq  #$-1, D0
000EAC: 23C0 0001 5016      move.l  D0, $00015016
000EB2: 23C0 0001 501A      move.l  D0, $0001501A
000EB8: 2F39 0001 5006      move.l  $00015006, -(A7)
000EBE: 4879 0001 7194      pea  $00017194
000EC4: 4879 0001 5032      pea  $00015032
000ECA: 4EB9 0000 21F2      jsr  sub_0x0021F2
000ED0: 4879 0001 5032      pea  $00015032
000ED6: 4EB9 0000 1A70      jsr  sub_0x001A70
000EDC: 4FEF 0010           lea  $10(A7), A7
000EE0: 4E75                rts

         0  1  2  3  4  5  6  7  8  9  A  B  C  D  E  F
000EE0:       48 E7 38 20 20 6F 00 14 24 6F 00 18 74 00         H.8  o..$o..t.
000EF0: 76 00 20 02 E9 80 24 00 10 18 0C 00 00 39 6F 0A       v. ...$......9o.
000F00: 12 00 48 81 48 C1 70 37 60 08 12 00 48 81 48 C1       ..H.H.p7`...H.H.
000F10: 70 30 92 80 D4 81 52 83 70 08 B0 83 6E D4 26 3C       p0....R.p...n.&<
000F20: 00 01 86 A0 22 03 20 02 0C 81 00 00 7F FF 63 10       ....". .......c.
000F30: 0C 81 FF FF 7F FF 62 08 4E B9 00 00 30 2E 60 06       ......b.N...0.`.
000F40: 81 C1 69 F4 48 C0 28 00 22 00 20 03 4E B9 00 00       ..i.H.(.". .N...
000F50: 30 90 94 80 20 4A 52 8A 20 04 72 30 D0 81 10 80       0... JR. .r0....
000F60: 42 12 72 0A 20 03 81 C1 68 08 4E B9 00 00 30 2E       B.r. ...h.N...0.
000F70: 60 02 48 C0 26 00 70 01 B0 83 6F A8 42 12 4C DF       `.H.&.p...o.B.L.
000F80: 04 1C 4E                                              ..N

000F84: 2F02                move.l  D2, -(A7)
000F86: 206F 0008           movea.l  $8(A7), A0
000F8A: 1228 0001           move.b  $1(A0), D1
000F8E: 4881                ext.w  D1
000F90: 48C1                ext.l  D1
000F92: 7030                moveq  #$30, D0
000F94: 9280                sub.l  D0, D1
000F96: 1010                move.b  (A0), D0
000F98: 4880                ext.w  D0
000F9A: 48C0                ext.l  D0
000F9C: 7430                moveq  #$30, D2
000F9E: 9082                sub.l  D2, D0
000FA0: D080                add.l  D0, D0
000FA2: 2400                move.l  D0, D2
000FA4: E580                asl.l  #2, D0
000FA6: D082                add.l  D2, D0
000FA8: D280                add.l  D0, D1
000FAA: 2001                move.l  D1, D0
000FAC: 241F                move.l  (A7)+, D2
000FAE: 4E75                rts
000FB0: 7003                moveq  #$3, D0
000FB2: 23C0 0001 500E      move.l  D0, $0001500E
000FB8: 70FF                moveq  #$-1, D0
000FBA: 23C0 0001 5016      move.l  D0, $00015016
000FC0: 42B9 0001 5012      clr.l  $00015012
000FC6: 42B9 0001 502E      clr.l  $0001502E
000FCC: 42B9 0001 5022      clr.l  $00015022
000FD2: 42B9 0001 502A      clr.l  $0001502A
000FD8: 7002                moveq  #$2, D0
000FDA: 23C0 0001 501A      move.l  D0, $0001501A
000FE0: 42A7                clr.l  -(A7)
000FE2: 4EB9 0000 123E      jsr  sub_0x00123E
000FE8: 588F                addq.l  #4, A7
000FEA: 4E75                rts

         0  1  2  3  4  5  6  7  8  9  A  B  C  D  E  F
000FE0:                                     2F 02 20 6F                   /. o
000FF0: 00 08 74 00 60 14 D4 82 20 02 E5 82 D4 80 10 18       ..t.`... .......
001000: 48 80 48 C0 72 30 90 81 D4 80 4A 10 66 E8 20 02       H.H.r0....J.f. .
001010: 24 1F 4E                                              $.N

001014: 48E7 0030           movem.l  A2-A3, -(A7)
001018: 247C 0001 50F2      movea.l  #$150f2, A2
00101E: 227C 0001 5022      movea.l  #$15022, A1
001024: 267C 0001 5000      movea.l  #$15000, A3
00102A: 7200                moveq  #$0, D1
00102C: 206B 0006           movea.l  $6(A3), A0
001030: 1028 000A           move.b  $A(A0), D0
001034: 1000                move.b  D0, D0
001036: 4880                ext.w  D0
001038: 0C40 0030           cmpi.w  #$30, D0
00103C: 6D28                blt.s  *cc_0x001066  {001066}
00103E: 6F0E                ble.s  *cc_0x00104E  {00104E}
001040: 0C40 0031           cmpi.w  #$31, D0
001044: 671A                beq.s  *cc_0x001060  {001060}
001046: 0C40 0033           cmpi.w  #$33, D0
00104A: 661A                bne.s  *cc_0x001066  {001066}
00104C: 6016                bra.s  *j_0x001064  {001064}
00104E: 4A91                tst.l  (A1)
001050: 6608                bne.s  *cc_0x00105A  {00105A}
001052: 7200                moveq  #$0, D1
001054: 7001                moveq  #$1, D0
001056: 2280                move.l  D0, (A1)
001058: 600C                bra.s  *cc_0x001066  {001066}
00105A: 7204                moveq  #$4, D1
00105C: 4291                clr.l  (A1)
00105E: 6006                bra.s  *cc_0x001066  {001066}
001060: 7206                moveq  #$6, D1
001062: 6002                bra.s  *cc_0x001066  {001066}
001064: 7205                moveq  #$5, D1
001066: 206B 0006           movea.l  $6(A3), A0
00106A: 0C28 0057 0005      cmpi.b  #$57, $5(A0)
001070: 6602                bne.s  *cc_0x001074  {001074}
001072: 7204                moveq  #$4, D1
001074: 206B 0006           movea.l  $6(A3), A0
001078: 0C28 0048 0006      cmpi.b  #$48, $6(A0)
00107E: 6602                bne.s  *cc_0x001082  {001082}
001080: 7201                moveq  #$1, D1
001082: 2F01                move.l  D1, -(A7)
001084: 4EB9 0000 123E      jsr  sub_0x00123E
00108A: 4879 0001 71A6      pea  $000171A6
001090: 4852                pea  (A2)
001092: 4EB9 0000 16E4      jsr  sub_0x0016E4
001098: 4EB9 0000 1B4E      jsr  sub_0x001B4E
00109E: 4EB9 0000 1B36      jsr  sub_0x001B36
0010A4: 4A80                tst.l  D0
0010A6: 4FEF 000C           lea  $C(A7), A7
0010AA: 6724                beq.s  *cc_0x0010D0  {0010D0}
0010AC: 4AB9 0001 502A      tst.l  $0001502A
0010B2: 660E                bne.s  *cc_0x0010C2  {0010C2}
0010B4: 4EBA F3FE           jsr  $-C02(PC)  {0004B4}
0010B8: 7001                moveq  #$1, D0
0010BA: 23C0 0001 502A      move.l  D0, $0001502A
0010C0: 6006                bra.s  *j_0x0010C8  {0010C8}
0010C2: 42B9 0001 502A      clr.l  $0001502A
0010C8: 157C 0048 0005      move.b  #$48, $5(A2)
0010CE: 6006                bra.s  *j_0x0010D6  {0010D6}
0010D0: 157C 004E 0005      move.b  #$4e, $5(A2)
0010D6: 4EB9 0000 1340      jsr  sub_0x001340
0010DC: 1000                move.b  D0, D0
0010DE: 0600 0030           addi.b  #$30, D0
0010E2: 0C00 0030           cmpi.b  #$30, D0
0010E6: 6602                bne.s  *cc_0x0010EA  {0010EA}
0010E8: 7036                moveq  #$36, D0
0010EA: 1540 0006           move.b  D0, $6(A2)
0010EE: 1000                move.b  D0, D0
0010F0: 4880                ext.w  D0
0010F2: 48C0                ext.l  D0
0010F4: 7220                moveq  #$20, D1
0010F6: D081                add.l  D1, D0
0010F8: 1540 0007           move.b  D0, $7(A2)
0010FC: 422A 0008           clr.b  $8(A2)
001100: 4852                pea  (A2)
001102: 2F3C 0004 0000      move.l  #$40000, -(A7)
001108: 4EB9 0000 19BC      jsr  sub_0x0019BC
00110E: 508F                addq.l  #8, A7
001110: 4CDF 0C00           movem.l  (A7)+, A2-A3
001114: 4E75                rts
001116: 48E7 0030           movem.l  A2-A3, -(A7)
00111A: 207C 0004 0000      movea.l  #$40000, A0
001120: 227C 0004 0010      movea.l  #$40010, A1
001126: 247C 0005 0000      movea.l  #$50000, A2
00112C: 267C 0004 0000      movea.l  #$40000, A3
001132: 117C 0022 0005      move.b  #$22, $5(A0)
001138: 117C 0038 0005      move.b  #$38, $5(A0)
00113E: 137C 0022 0005      move.b  #$22, $5(A1)
001144: 137C 0038 0005      move.b  #$38, $5(A1)
00114A: 117C 0010 0005      move.b  #$10, $5(A0)
001150: 117C 0013 0001      move.b  #$13, $1(A0)
001156: 117C 0017 0001      move.b  #$17, $1(A0)
00115C: 117C 00BB 0003      move.b  #$bb, $3(A0)
001162: 137C 0010 0005      move.b  #$10, $5(A1)
001168: 137C 0013 0001      move.b  #$13, $1(A1)
00116E: 137C 0007 0001      move.b  #$7, $1(A1)
001174: 137C 0088 0003      move.b  #$88, $3(A1)
00117A: 177C 0014 001B      move.b  #$14, $1B(A3)
001180: 177C 00C0 001F      move.b  #$c0, $1F(A3)
001186: 177C 003F 001D      move.b  #$3f, $1D(A3)
00118C: 177C 0070 0009      move.b  #$70, $9(A3)
001192: 422B 000B           clr.b  $B(A3)
001196: 177C 00FF 000D      move.b  #$ff, $D(A3)
00119C: 177C 00FF 000F      move.b  #$ff, $F(A3)
0011A2: 117C 0001 0005      move.b  #$1, $5(A0)
0011A8: 117C 0004 0005      move.b  #$4, $5(A0)
0011AE: 137C 0001 0005      move.b  #$1, $5(A1)
0011B4: 137C 0004 0005      move.b  #$4, $5(A1)
0011BA: 4EBA 0104           jsr  sub_0x0012C0  {0012C0}
0011BE: 4E71                nop
0011C0: 4A80                tst.l  D0
0011C2: 6730                beq.s  *cc_0x0011F4  {0011F4}
0011C4: 157C 0022 0005      move.b  #$22, $5(A2)
0011CA: 157C 0038 0005      move.b  #$38, $5(A2)
0011D0: 157C 0010 0005      move.b  #$10, $5(A2)
0011D6: 157C 0013 0001      move.b  #$13, $1(A2)
0011DC: 157C 0007 0001      move.b  #$7, $1(A2)
0011E2: 157C 00BB 0003      move.b  #$bb, $3(A2)
0011E8: 157C 0001 0005      move.b  #$1, $5(A2)
0011EE: 157C 0004 0005      move.b  #$4, $5(A2)
0011F4: 7000                moveq  #$0, D0
0011F6: 5280                addq.l  #1, D0
0011F8: 0C80 0000 2710      cmpi.l  #$2710, D0
0011FE: 6DF6                blt.s  *cc_0x0011F6  {0011F6}
001200: 4CDF 0C00           movem.l  (A7)+, A2-A3
001204: 4E75                rts
001206: 206F 0004           movea.l  $4(A7), A0
00120A: 226F 0008           movea.l  $8(A7), A1
00120E: 0828 0000 0003      btst  #$0, $3(A0)
001214: 6708                beq.s  *cc_0x00121E  {00121E}
001216: 12A8 0007           move.b  $7(A0), (A1)
00121A: 7001                moveq  #$1, D0
00121C: 6002                bra.s  *j_0x001220  {001220}
00121E: 7000                moveq  #$0, D0
001220: 4E75                rts
001222: 206F 0004           movea.l  $4(A7), A0
001226: 102F 000B           move.b  $B(A7), D0
00122A: 0828 0002 0003      btst  #$2, $3(A0)
001230: 6708                beq.s  *cc_0x00123A  {00123A}
001232: 1140 0007           move.b  D0, $7(A0)
001236: 7001                moveq  #$1, D0
001238: 6002                bra.s  *j_0x00123C  {00123C}
00123A: 7000                moveq  #$0, D0
00123C: 4E75                rts
00123E: 2F02                move.l  D2, -(A7)
001240: 222F 0008           move.l  $8(A7), D1
001244: 2001                move.l  D1, D0
001246: 6D40                blt.s  *cc_0x001288  {001288}
001248: 7406                moveq  #$6, D2
00124A: B480                cmp.l  D0, D2
00124C: 6D3A                blt.s  *cc_0x001288  {001288}
00124E: D080                add.l  D0, D0
001250: 303B 0806           move.w  $6(PC,D0.L), D0
001254: 4EFB 0002           jmp  $2(PC,D0.W)

         0  1  2  3  4  5  6  7  8  9  A  B  C  D  E  F
001250:                         00 0E 00 12 00 16 00 30               .......0
001260: 00 1A 00 22 00 2A 72 00 60 1E 72 40 60 1A 72 60       ...".*r.`.r@`.r`
001270: 60 16 22 3C 00 00 00 80 60 0E 22 3C 00 00 00 C0       `."<....`."<....
001280: 60 06 22 3C 00 00 00                                  `."<...

001288: 2079 0001 72E0      movea.l  $000172E0, A0
00128E: 1141 001F           move.b  D1, $1F(A0)
001292: 2079 0001 72E0      movea.l  $000172E0, A0
001298: 2001                move.l  D1, D0
00129A: 4680                not.l  D0
00129C: 0280 0000 00E0      andi.l  #$e0, D0
0012A2: 1140 001D           move.b  D0, $1D(A0)
0012A6: 241F                move.l  (A7)+, D2
0012A8: 4E75                rts
0012AA: 2079 0001 72E0      movea.l  $000172E0, A0
0012B0: 0828 0001 001B      btst  #$1, $1B(A0)
0012B6: 6704                beq.s  *cc_0x0012BC  {0012BC}
0012B8: 7000                moveq  #$0, D0
0012BA: 6002                bra.s  *j_0x0012BE  {0012BE}
0012BC: 7001                moveq  #$1, D0
0012BE: 4E75                rts
0012C0: 2079 0001 72E0      movea.l  $000172E0, A0
0012C6: 0828 0005 001B      btst  #$5, $1B(A0)
0012CC: 6704                beq.s  *cc_0x0012D2  {0012D2}
0012CE: 7000                moveq  #$0, D0
0012D0: 6002                bra.s  *j_0x0012D4  {0012D4}
0012D2: 7001                moveq  #$1, D0
0012D4: 4E75                rts

         0  1  2  3  4  5  6  7  8  9  A  B  C  D  E  F
0012D0:                   20 79 00 01 72 E0 11 7C 00 04              y..r..|..
0012E0: 00 1F 4E 75 20 79 00 01 72 E0 11 7C 00 04 00 1D       ..Nu y..r..|....
0012F0: 4E 75 20 2F 00 04 0C 80 00 00 09 60 66 0E 20 79       Nu /.......`f. y
001300: 00 01 72 E0 11 7C 00 01 00 1D 60 0C 20 79 00 01       ..r..|....`. y..
001310: 72 E0 11 7C 00 01 00 1F 4E 75 22 2F 00 04 70 01       r..|....Nu"/..p.
001320: B0 81 66 0E 20 79 00 01 72 E0 11 7C 00 02 00 1F       ..f. y..r..|....
001330: 60 0C 20 79 00 01 72 E0 11 7C 00 02 00 1D 4E          `. y..r..|....N

001340: 2079 0001 72E0      movea.l  $000172E0, A0
001346: 1228 001B           move.b  $1B(A0), D1
00134A: 4881                ext.w  D1
00134C: 48C1                ext.l  D1
00134E: E481                asr.l  #2, D1
001350: 1201                move.b  D1, D1
001352: 4881                ext.w  D1
001354: 48C1                ext.l  D1
001356: 4681                not.l  D1
001358: 7007                moveq  #$7, D0
00135A: C280                and.l  D0, D1
00135C: 2001                move.l  D1, D0
00135E: 4E75                rts

         0  1  2  3  4  5  6  7  8  9  A  B  C  D  E  F
001360: 48 E7 30 20 24 2F 00 10 24 6F 00 14 60 14 10 03       H.0 $/..$o..`...
001370: 48 80 48 C0 2F 00 2F 02 4E BA FE A8 50 8F 4A 80       H.H././.N...P.J.
001380: 67 EC 16 1A 66 E8 4C DF 04 0C 4E 75 4E 56 FF FC       g...f.L...NuNV..
001390: 48 6E FF FF 2F 3C 00 05 00 00 4E BA FE 6A 50 8F       Hn../<....N..jP.
0013A0: 4A 80 67 EC 10 2E FF FF 10 00 48 80 48 C0 4E 5E       J.g.......H.H.N^
0013B0: 4E 75 2F 02 14 2F 00 0B 10 02 48 80 48 C0 2F 00       Nu/../....H.H./.
0013C0: 2F 3C 00 05 00 00 4E BA FE 5A 50 8F 4A 80 67 E8       /<....N..ZP.J.g.
0013D0: 24 1F 4E 75 4E 56 FF FC 48 6E FF FF 2F 3C 00 04       $.NuNV..Hn../<..
0013E0: 00 10 4E BA FE 22 50 8F 4A 80 67 EC 10 2E FF FF       ..N.."P.J.g.....
0013F0: 10 00 48 80 48 C0 4E 5E 4E 75 2F 02 14 2F 00 0B       ..H.H.N^Nu/../..
001400: 10 02 48 80 48 C0 2F 00 2F 3C 00 04 00 10 4E BA       ..H.H././<....N.
001410: FE 12 50 8F 4A 80 67 E8 24 1F 4E 75 4E 56 FF FC       ..P.J.g.$.NuNV..
001420: 48 78 00 0A 48 6E FF FC 4E B9 00 00 25 20 50 8F       Hx..Hn..N...% P.
001430: 4A 80 67 04 70 FF 60 0C 2F 2E FF FC 4E BA FE 00       J.g.p.`./...N...
001440: 58 8F 70 00 4E 5E 4E 75 4E 56 FF FC 48 78 00 0A       X.p.N^NuNV..Hx..
001450: 48 6E FF FC 4E B9 00 00 25 20 50 8F 4A 80 67 04       Hn..N...% P.J.g.
001460: 70 FF 60 12 4A AE FF FC 67 06 4E BA FE 6A 60 04       p.`.J...g.N..j`.
001470: 4E BA FE 72 70 00 4E 5E 4E 75 4E 56 FF FC 48 78       N..rp.N^NuNV..Hx
001480: 00 0A 48 6E FF FC 4E B9 00 00 25 20 50 8F 4A 80       ..Hn..N...% P.J.
001490: 67 04 70 FF 60 22 0C AE 00 00 04 B0 FF FC 67 0C       g.p.`"........g.
0014A0: 0C AE 00 00 09 60 FF FC 67 02 60 E6 2F 2E FF FC       .....`..g.`./...
0014B0: 4E BA FE 40 58 8F 70 00 4E 5E 4E 75 4E 56 FF FC       N..@X.p.N^NuNV..
0014C0: 48 78 00 0A 48 6E FF FC 4E B9 00 00 25 20 50 8F       Hx..Hn..N...% P.
0014D0: 4A 80 67 04 70 FF 60 0C 2F 2E FF FC 4E BA FE 3C       J.g.p.`./...N..<
0014E0: 58 8F 70 00 4E 5E 4E 75 4E BA FE 56 2F 00 48 79       X.p.N^NuN..V/.Hy
0014F0: 00 01 72 6A 4E B9 00 00 22 06 50 8F 70 00 4E 75       ..rjN...".P.p.Nu
001500: 4E BA FD A8 2F 00 48 79 00 01 72 78 4E B9 00 00       N.../.Hy..rxN...
001510: 22 06 50 8F 70 00 4E 75 4E BA FD A6 2F 00 48 79       ".P.p.NuN.../.Hy
001520: 00 01 72 8C 4E B9 00 00 22 06 50 8F 70 00 4E 75       ..r.N...".P.p.Nu
001530: 4E 56 FF FC 42 2E FF FF 48 6E FF FF 2F 3C 00 04       NV..B...Hn../<..
001540: 00 00 4E BA FC C2 50 8F 4A 80 67 16 10 2E FF FF       ..N...P.J.g.....
001550: 48 80 48 C0 2F 00 2F 3C 00 04 00 10 4E BA FC C4       H.H././<....N...
001560: 50 8F 42 2E FF FF 48 6E FF FF 2F 3C 00 04 00 10       P.B...Hn../<....
001570: 4E BA FC 94 50 8F 4A 80 67 16 10 2E FF FF 48 80       N...P.J.g.....H.
001580: 48 C0 2F 00 2F 3C 00 04 00 00 4E BA FC 96 50 8F       H././<....N...P.
001590: 42 2E FF FF 48 6E FF FF 2F 3C 00 05 00 00 4E BA       B...Hn../<....N.
0015A0: FC 66 50 8F 4A 80 66 00 00 02 0C 2E 00 03 FF FF       .fP.J.f.........
0015B0: 66 82 70 00 4E 5E 4E 75 4E 56 FF FC 42 2E FF FF       f.p.N^NuNV..B...
0015C0: 48 6E FF FF 2F 3C 00 04 00 00 4E BA FC 3A 50 8F       Hn../<....N..:P.
0015D0: 4A 80 67 16 10 2E FF FF 48 80 48 C0 2F 00 2F 3C       J.g.....H.H././<
0015E0: 00 05 00 00 4E BA FC 3C 50 8F 42 2E FF FF 48 6E       ....N..<P.B...Hn
0015F0: FF FF 2F 3C 00 05 00 00 4E BA FC 0C 50 8F 4A 80       ../<....N...P.J.
001600: 67 16 10 2E FF FF 48 80 48 C0 2F 00 2F 3C 00 04       g.....H.H././<..
001610: 00 00 4E BA FC 0E 50 8F 0C 2E 00 03 FF FF 66 9C       ..N...P.......f.
001620: 70 00 4E 5E 4E 75 4E 56 FF FC 42 2E FF FF 48 6E       p.N^NuNV..B...Hn
001630: FF FF 2F 3C 00 04 00 10 4E BA FB CC 50 8F 4A 80       ../<....N...P.J.
001640: 67 16 10 2E FF FF 48 80 48 C0 2F 00 2F 3C 00 05       g.....H.H././<..
001650: 00 00 4E BA FB CE 50 8F 42 2E FF FF 48 6E FF FF       ..N...P.B...Hn..
001660: 2F 3C 00 05 00 00 4E BA FB 9E 50 8F 4A 80 67 16       /<....N...P.J.g.
001670: 10 2E FF FF 48 80 48 C0 2F 00 2F 3C 00 04 00 10       ....H.H././<....
001680: 4E BA FB A0 50 8F 0C 2E 00 03 FF FF 66 9C 70 00       N...P.......f.p.
001690: 4E 5E 4E 75 4E BA FA 80 4E BA FC 26 4A 80 67 2C       N^NuN...N..&J.g,
0016A0: 48 79 00 01 72 98 2F 3C 00 05 00 00 4E BA FC B2       Hy..r./<....N...
0016B0: 48 79 00 01 72 BC 2F 3C 00 05 00 00 4E BA FC A2       Hy..r./<....N...
0016C0: 4E B9 00 00 2F 8A 4F EF 00 10 60 06 4E B9 00 00       N.../.O...`.N...
0016D0: 04 2C 4E 75 20 6F 00 04 70 00 60 02 52 80 4A 18       .,Nu o..p.`.R.J.
0016E0: 66 FA 4E                                              f.N

0016E4: 206F 0004           movea.l  $4(A7), A0
0016E8: 226F 0008           movea.l  $8(A7), A1
0016EC: 10D9                move.b  (A1)+, (A0)+
0016EE: 66FC                bne.s  *cc_0x0016EC  {0016EC}
0016F0: 4E75                rts

         0  1  2  3  4  5  6  7  8  9  A  B  C  D  E  F
0016F0:       20 6F 00 04 22 6F 00 08 60 02 52 88 4A 10          o.."o..`.R.J.
001700: 66 FA 10 D9 66 FC 4E 75 20 6F 00 04 22 6F 00 08       f...f.Nu o.."o..
001710: 20 2F 00 0C 60 06 10 D9 66 02 60 0A 22 00 53 80        /..`...f.`.".S.
001720: 4A 81 6E F2 42 10 4E 75 20 6F 00 04 22 6F 00 08       J.n.B.Nu o.."o..
001730: 20 2F 00 0C 60 02 52 88 4A 10 66 FA 60 06 10 D9        /..`.R.J.f.`...
001740: 66 02 60 0A 22 00 53 80 4A 81 6E F2 42 10 4E 75       f.`.".S.J.n.B.Nu
001750: 20 6F 00 04 10 2F 00 0B B0 10 66 04 20 08 60 06        o.../....f. .`.
001760: 4A 18 66 F4 70 00 4E 75 22 2F 00 04 10 2F 00 0B       J.f.p.Nu"/.../..
001770: 20 41 60 02 52 88 4A 10 66 FA B0 10 66 04 20 08        A`.R.J.f...f. .
001780: 60 08 53 88 B1 C1 64 F2 70 00 4E                      `.S...d.p.N

00178C: 206F 0004           movea.l  $4(A7), A0
001790: 226F 0008           movea.l  $8(A7), A1
001794: 222F 000C           move.l  $C(A7), D1
001798: 601C                bra.s  *j_0x0017B6  {0017B6}
00179A: 1011                move.b  (A1), D0
00179C: B010                cmp.b  (A0), D0
00179E: 670C                beq.s  *cc_0x0017AC  {0017AC}
0017A0: 7000                moveq  #$0, D0
0017A2: 1010                move.b  (A0), D0
0017A4: 7200                moveq  #$0, D1
0017A6: 1211                move.b  (A1), D1
0017A8: 9081                sub.l  D1, D0
0017AA: 6010                bra.s  *j_0x0017BC  {0017BC}
0017AC: 4A10                tst.b  (A0)
0017AE: 670A                beq.s  *cc_0x0017BA  {0017BA}
0017B0: 5288                addq.l  #1, A0
0017B2: 5289                addq.l  #1, A1
0017B4: 5381                subq.l  #1, D1
0017B6: 4A81                tst.l  D1
0017B8: 66E0                bne.s  *cc_0x00179A  {00179A}
0017BA: 7000                moveq  #$0, D0
0017BC: 4E75                rts

         0  1  2  3  4  5  6  7  8  9  A  B  C  D  E  F
0017B0:                                           2F 02                     /.
0017C0: 20 6F 00 08 14 18 0C 02 00 61 6D 14 0C 02 00 7A        o.......am....z
0017D0: 6E 0E 10 02 48 80 48 C0 72 E0 D0 81 11 40 FF FF       n...H.H.r....@..
0017E0: 4A 02 66 E0 24 1F 4E 75 20 6F 00 04 22 6F 00 08       J.f.$.Nu o.."o..
0017F0: 60 08 4A 18 66 04 70 01 60 08 10 10 B0 19 67 F2       `.J.f.p.`.....g.
001800: 70 00 4E                                              p.N

001804: 42B9 0001 5112      clr.l  $00015112
00180A: 4EB9 0000 042C      jsr  sub_0x00042C
001810: 4E75                rts
001812: 2F02                move.l  D2, -(A7)
001814: 23FC 0001 86A0 0001 move.l  #$186a0, $000153EA
00181E: 7400                moveq  #$0, D2
001820: 2002                move.l  D2, D0
001822: 2200                move.l  D0, D1
001824: C0FC 004C           mulu  #$4c, D0
001828: 4841                swap  D1
00182A: C2FC 004C           mulu  #$4c, D1
00182E: 4841                swap  D1
001830: 4241                clr.w  D1
001832: D081                add.l  D1, D0
001834: 207C 0001 5126      movea.l  #$15126, A0
00183A: 4870 0800           pea  $0(A0,D0.L)
00183E: 4EBA 0336           jsr  sub_0x001B76  {001B76}
001842: 4E71                nop
001844: 2002                move.l  D2, D0
001846: 2200                move.l  D0, D1
001848: C0FC 004C           mulu  #$4c, D0
00184C: 4841                swap  D1
00184E: C2FC 004C           mulu  #$4c, D1
001852: 4841                swap  D1
001854: 4241                clr.w  D1
001856: D081                add.l  D1, D0
001858: 207C 0001 5256      movea.l  #$15256, A0
00185E: 4870 0800           pea  $0(A0,D0.L)
001862: 4EBA 0312           jsr  sub_0x001B76  {001B76}
001866: 4E71                nop
001868: 5282                addq.l  #1, D2
00186A: 508F                addq.l  #8, A7
00186C: 7004                moveq  #$4, D0
00186E: B082                cmp.l  D2, D0
001870: 6EAE                bgt.s  *cc_0x001820  {001820}
001872: 42B9 0001 5386      clr.l  $00015386
001878: 42B9 0001 538A      clr.l  $0001538A
00187E: 42B9 0001 538E      clr.l  $0001538E
001884: 42B9 0001 5392      clr.l  $00015392
00188A: 42B9 0001 5116      clr.l  $00015116
001890: 23FC 0004 0010 0001 move.l  #$40010, $0001511A
00189A: 23FC 0004 0000 0001 move.l  #$40000, $0001511E
0018A4: 23FC 0005 0000 0001 move.l  #$50000, $00015122
0018AE: 42B9 0001 53EE      clr.l  $000153EE
0018B4: 42B9 0001 53F2      clr.l  $000153F2
0018BA: 4EB9 0000 12C0      jsr  sub_0x0012C0
0018C0: 4A80                tst.l  D0
0018C2: 6708                beq.s  *cc_0x0018CC  {0018CC}
0018C4: 7001                moveq  #$1, D0
0018C6: 23C0 0001 5116      move.l  D0, $00015116
0018CC: 4879 0001 72FA      pea  $000172FA
0018D2: 4879 0001 72E4      pea  $000172E4
0018D8: 4879 0001 5396      pea  $00015396
0018DE: 4EB9 0000 21F2      jsr  sub_0x0021F2
0018E4: 4879 0001 5396      pea  $00015396
0018EA: 4EBA 0184           jsr  sub_0x001A70  {001A70}
0018EE: 4E71                nop
0018F0: 4FEF 0010           lea  $10(A7), A7
0018F4: 241F                move.l  (A7)+, D2
0018F6: 4E75                rts
0018F8: 48E7 3000           movem.l  D2-D3, -(A7)
0018FC: 242F 000C           move.l  $C(A7), D2
001900: 2639 0001 538A      move.l  $0001538A, D3
001906: 4EBA 0306           jsr  sub_0x001C0E  {001C0E}
00190A: 4E71                nop
00190C: 2203                move.l  D3, D1
00190E: 2001                move.l  D1, D0
001910: C2FC 004C           mulu  #$4c, D1
001914: 4840                swap  D0
001916: C0FC 004C           mulu  #$4c, D0
00191A: 4840                swap  D0
00191C: 4240                clr.w  D0
00191E: D280                add.l  D0, D1
001920: 207C 0001 5126      movea.l  #$15126, A0
001926: 7005                moveq  #$5, D0
001928: B0B0 1800           cmp.l  $0(A0,D1.L), D0
00192C: 6632                bne.s  *cc_0x001960  {001960}
00192E: 2F02                move.l  D2, -(A7)
001930: 2203                move.l  D3, D1
001932: 2001                move.l  D1, D0
001934: C2FC 004C           mulu  #$4c, D1
001938: 4840                swap  D0
00193A: C0FC 004C           mulu  #$4c, D0
00193E: 4840                swap  D0
001940: 4240                clr.w  D0
001942: D280                add.l  D0, D1
001944: 207C 0001 5126      movea.l  #$15126, A0
00194A: 4870 1800           pea  $0(A0,D1.L)
00194E: 4878 0001           pea  $0001
001952: 4EBA 027C           jsr  sub_0x001BD0  {001BD0}
001956: 4E71                nop
001958: 4FEF 000C           lea  $C(A7), A7
00195C: 7001                moveq  #$1, D0
00195E: 6056                bra.s  *j_0x0019B6  {0019B6}
001960: 2639 0001 5392      move.l  $00015392, D3
001966: 4EBA 0430           jsr  sub_0x001D98  {001D98}
00196A: 4E71                nop
00196C: 2203                move.l  D3, D1
00196E: 2001                move.l  D1, D0
001970: C2FC 004C           mulu  #$4c, D1
001974: 4840                swap  D0
001976: C0FC 004C           mulu  #$4c, D0
00197A: 4840                swap  D0
00197C: 4240                clr.w  D0
00197E: D280                add.l  D0, D1
001980: 207C 0001 5256      movea.l  #$15256, A0
001986: 7005                moveq  #$5, D0
001988: B0B0 1800           cmp.l  $0(A0,D1.L), D0
00198C: 6626                bne.s  *cc_0x0019B4  {0019B4}
00198E: 2F02                move.l  D2, -(A7)
001990: 2203                move.l  D3, D1
001992: 2001                move.l  D1, D0
001994: C2FC 004C           mulu  #$4c, D1
001998: 4840                swap  D0
00199A: C0FC 004C           mulu  #$4c, D0
00199E: 4840                swap  D0
0019A0: 4240                clr.w  D0
0019A2: D280                add.l  D0, D1
0019A4: 207C 0001 5256      movea.l  #$15256, A0
0019AA: 4870 1800           pea  $0(A0,D1.L)
0019AE: 4878 0002           pea  $0002
0019B2: 609E                bra.s  *j_0x001952  {001952}
0019B4: 7000                moveq  #$0, D0
0019B6: 4CDF 000C           movem.l  (A7)+, D2-D3
0019BA: 4E75                rts
0019BC: 48E7 2020           movem.l  D2/A2, -(A7)
0019C0: 242F 000C           move.l  $C(A7), D2
0019C4: 246F 0010           movea.l  $10(A7), A2
0019C8: 2F0A                move.l  A2, -(A7)
0019CA: 4EBA 00A4           jsr  sub_0x001A70  {001A70}
0019CE: 4E71                nop
0019D0: 588F                addq.l  #4, A7
0019D2: 6026                bra.s  *j_0x0019FA  {0019FA}
0019D4: 600C                bra.s  *j_0x0019E2  {0019E2}
0019D6: 4EBA 0236           jsr  sub_0x001C0E  {001C0E}
0019DA: 4E71                nop
0019DC: 4EBA 03BA           jsr  sub_0x001D98  {001D98}
0019E0: 4E71                nop
0019E2: 1012                move.b  (A2), D0
0019E4: 4880                ext.w  D0
0019E6: 48C0                ext.l  D0
0019E8: 2F00                move.l  D0, -(A7)
0019EA: 2F02                move.l  D2, -(A7)
0019EC: 4EB9 0000 1222      jsr  sub_0x001222
0019F2: 508F                addq.l  #8, A7
0019F4: 4A80                tst.l  D0
0019F6: 67DE                beq.s  *cc_0x0019D6  {0019D6}
0019F8: 528A                addq.l  #1, A2
0019FA: 4A12                tst.b  (A2)
0019FC: 66D6                bne.s  *cc_0x0019D4  {0019D4}
0019FE: 4CDF 0404           movem.l  (A7)+, D2/A2
001A02: 4E75                rts
001A04: 202F 0004           move.l  $4(A7), D0
001A08: 7201                moveq  #$1, D1
001A0A: B280                cmp.l  D0, D1
001A0C: 6E60                bgt.s  *cc_0x001A6E  {001A6E}
001A0E: 6C08                bge.s  *cc_0x001A18  {001A18}
001A10: 7202                moveq  #$2, D1
001A12: B280                cmp.l  D0, D1
001A14: 6658                bne.s  *cc_0x001A6E  {001A6E}
001A16: 6026                bra.s  *j_0x001A3E  {001A3E}
001A18: 4879 0001 5386      pea  $00015386
001A1E: 2239 0001 538A      move.l  $0001538A, D1
001A24: 2001                move.l  D1, D0
001A26: C2FC 004C           mulu  #$4c, D1
001A2A: 4840                swap  D0
001A2C: C0FC 004C           mulu  #$4c, D0
001A30: 4840                swap  D0
001A32: 4240                clr.w  D0
001A34: D280                add.l  D0, D1
001A36: 207C 0001 5126      movea.l  #$15126, A0
001A3C: 6024                bra.s  *j_0x001A62  {001A62}
001A3E: 4879 0001 538E      pea  $0001538E
001A44: 2239 0001 5392      move.l  $00015392, D1
001A4A: 2001                move.l  D1, D0
001A4C: C2FC 004C           mulu  #$4c, D1
001A50: 4840                swap  D0
001A52: C0FC 004C           mulu  #$4c, D0
001A56: 4840                swap  D0
001A58: 4240                clr.w  D0
001A5A: D280                add.l  D0, D1
001A5C: 207C 0001 5256      movea.l  #$15256, A0
001A62: 4870 1800           pea  $0(A0,D1.L)
001A66: 4EBA 0122           jsr  sub_0x001B8A  {001B8A}
001A6A: 4E71                nop
001A6C: 508F                addq.l  #8, A7
001A6E: 4E75                rts
001A70: 2F0A                move.l  A2, -(A7)
001A72: 206F 0008           movea.l  $8(A7), A0
001A76: 4AB9 0001 5116      tst.l  $00015116
001A7C: 675E                beq.s  *cc_0x001ADC  {001ADC}
001A7E: 2448                movea.l  A0, A2
001A80: 602A                bra.s  *j_0x001AAC  {001AAC}
001A82: 600C                bra.s  *j_0x001A90  {001A90}
001A84: 4EBA 0188           jsr  sub_0x001C0E  {001C0E}
001A88: 4E71                nop
001A8A: 4EBA 030C           jsr  sub_0x001D98  {001D98}
001A8E: 4E71                nop
001A90: 1012                move.b  (A2), D0
001A92: 4880                ext.w  D0
001A94: 48C0                ext.l  D0
001A96: 2F00                move.l  D0, -(A7)
001A98: 2F39 0001 5122      move.l  $00015122, -(A7)
001A9E: 4EB9 0000 1222      jsr  sub_0x001222
001AA4: 508F                addq.l  #8, A7
001AA6: 4A80                tst.l  D0
001AA8: 67DA                beq.s  *cc_0x001A84  {001A84}
001AAA: 528A                addq.l  #1, A2
001AAC: 4A12                tst.b  (A2)
001AAE: 66D2                bne.s  *cc_0x001A82  {001A82}
001AB0: 4878 000A           pea  $000A
001AB4: 2F3C 0005 0000      move.l  #$50000, -(A7)
001ABA: 4EB9 0000 1222      jsr  sub_0x001222
001AC0: 508F                addq.l  #8, A7
001AC2: 4A80                tst.l  D0
001AC4: 67EA                beq.s  *cc_0x001AB0  {001AB0}
001AC6: 4878 000D           pea  $000D
001ACA: 2F3C 0005 0000      move.l  #$50000, -(A7)
001AD0: 4EB9 0000 1222      jsr  sub_0x001222
001AD6: 508F                addq.l  #8, A7
001AD8: 4A80                tst.l  D0
001ADA: 67EA                beq.s  *cc_0x001AC6  {001AC6}
001ADC: 245F                movea.l  (A7)+, A2
001ADE: 4E75                rts

         0  1  2  3  4  5  6  7  8  9  A  B  C  D  E  F
001AE0: 20 2F 00 04 23 C0 00 01 51 16 4E 75 10 2F 00 07        /..#...Q.Nu./..
001AF0: 10 00 48 80 0C 40 00 30 6D 22 6F 08 0C 40 00 31       ..H..@.0m"o..@.1
001B00: 66 1A 60 0C 23 FC 00 05 00 00 00 01 51 1A 60 18       f.`.#.......Q.`.
001B10: 23 FC 00 05 00 00 00 01 51 1E 60 0C 48 79 00 01       #.......Q.`.Hy..
001B20: 73 00 4E BA FF 4C 58 8F 4E 75 20 2F 00 04 23 C0       s.N..LX.Nu /..#.
001B30: 00 01 53 EA 4E                                        ..S.N

001B36: 7001                moveq  #$1, D0
001B38: B0B9 0001 53EE      cmp.l  $000153EE, D0
001B3E: 660A                bne.s  *cc_0x001B4A  {001B4A}
001B40: 42B9 0001 53EE      clr.l  $000153EE
001B46: 7001                moveq  #$1, D0
001B48: 6002                bra.s  *j_0x001B4C  {001B4C}
001B4A: 7000                moveq  #$0, D0
001B4C: 4E75                rts
001B4E: 2F0A                move.l  A2, -(A7)
001B50: 247C 0001 53F2      movea.l  #$153f2, A2
001B56: 4EB9 0000 12AA      jsr  sub_0x0012AA
001B5C: 4A80                tst.l  D0
001B5E: 6710                beq.s  *cc_0x001B70  {001B70}
001B60: 4A92                tst.l  (A2)
001B62: 660E                bne.s  *cc_0x001B72  {001B72}
001B64: 7001                moveq  #$1, D0
001B66: 23C0 0001 53EE      move.l  D0, $000153EE
001B6C: 2480                move.l  D0, (A2)
001B6E: 6002                bra.s  *cc_0x001B72  {001B72}
001B70: 4292                clr.l  (A2)
001B72: 245F                movea.l  (A7)+, A2
001B74: 4E75                rts
001B76: 206F 0004           movea.l  $4(A7), A0
001B7A: 4290                clr.l  (A0)
001B7C: 42A8 0004           clr.l  $4(A0)
001B80: 2179 0001 53EA 0008 move.l  $000153EA, $8(A0)
001B88: 4E75                rts
001B8A: 48E7 2020           movem.l  D2/A2, -(A7)
001B8E: 242F 000C           move.l  $C(A7), D2
001B92: 246F 0010           movea.l  $10(A7), A2
001B96: 2012                move.l  (A2), D0
001B98: B0AA 0004           cmp.l  $4(A2), D0
001B9C: 6614                bne.s  *cc_0x001BB2  {001BB2}
001B9E: 4879 0001 7326      pea  $00017326
001BA4: 4EBA FECA           jsr  $-136(PC)  {001A70}
001BA8: 2F02                move.l  D2, -(A7)
001BAA: 4EBA FFCA           jsr  $-36(PC)  {001B76}
001BAE: 508F                addq.l  #8, A7
001BB0: 6018                bra.s  *cc_0x001BCA  {001BCA}
001BB2: 2F02                move.l  D2, -(A7)
001BB4: 4EBA FFC0           jsr  $-40(PC)  {001B76}
001BB8: 52AA 0004           addq.l  #1, $4(A2)
001BBC: 588F                addq.l  #4, A7
001BBE: 7004                moveq  #$4, D0
001BC0: B0AA 0004           cmp.l  $4(A2), D0
001BC4: 6604                bne.s  *cc_0x001BCA  {001BCA}
001BC6: 42AA 0004           clr.l  $4(A2)
001BCA: 4CDF 0404           movem.l  (A7)+, D2/A2
001BCE: 4E75                rts
001BD0: 2F0A                move.l  A2, -(A7)
001BD2: 222F 0008           move.l  $8(A7), D1
001BD6: 206F 000C           movea.l  $C(A7), A0
001BDA: 226F 0010           movea.l  $10(A7), A1
001BDE: 7001                moveq  #$1, D0
001BE0: 2080                move.l  D0, (A0)
001BE2: 32BC 0001           move.w  #$1, (A1)
001BE6: 2341 0002           move.l  D1, $2(A1)
001BEA: 45E8 000C           lea  $C(A0), A2
001BEE: 234A 0006           move.l  A2, $6(A1)
001BF2: 2368 0004 000A      move.l  $4(A0), $A(A1)
001BF8: 4AB9 0001 5116      tst.l  $00015116
001BFE: 670A                beq.s  *cc_0x001C0A  {001C0A}
001C00: 4868 000C           pea  $C(A0)
001C04: 4EBA FE6A           jsr  $-196(PC)  {001A70}
001C08: 588F                addq.l  #4, A7
001C0A: 245F                movea.l  (A7)+, A2
001C0C: 4E75                rts
001C0E: 4E56 FFFC           link A6, #$-4
001C12: 48E7 3038           movem.l  D2-D3/A2-A4, -(A7)
001C16: 287C 0001 5126      movea.l  #$15126, A4
001C1C: 4EBA FF30           jsr  $-D0(PC)  {001B4E}
001C20: 2439 0001 5386      move.l  $00015386, D2
001C26: 486E FFFF           pea  $-1(A6)
001C2A: 2F39 0001 511A      move.l  $0001511A, -(A7)
001C30: 4EB9 0000 1206      jsr  sub_0x001206
001C36: 508F                addq.l  #8, A7
001C38: 4A80                tst.l  D0
001C3A: 6700 00F4           beq  *cc_0x001D30  {001D30}
001C3E: 2202                move.l  D2, D1
001C40: 2001                move.l  D1, D0
001C42: C2FC 004C           mulu  #$4c, D1
001C46: 4840                swap  D0
001C48: C0FC 004C           mulu  #$4c, D0
001C4C: 4840                swap  D0
001C4E: 4240                clr.w  D0
001C50: D280                add.l  D0, D1
001C52: 45F4 1804           lea  $4(A4,D1.L), A2
001C56: 2202                move.l  D2, D1
001C58: 2001                move.l  D1, D0
001C5A: C2FC 004C           mulu  #$4c, D1
001C5E: 4840                swap  D0
001C60: C0FC 004C           mulu  #$4c, D0
001C64: 4840                swap  D0
001C66: 4240                clr.w  D0
001C68: D280                add.l  D0, D1
001C6A: 204C                movea.l  A4, A0
001C6C: D1C1                adda.l  D1, A0
001C6E: 2248                movea.l  A0, A1
001C70: 2202                move.l  D2, D1
001C72: 2001                move.l  D1, D0
001C74: C2FC 004C           mulu  #$4c, D1
001C78: 4840                swap  D0
001C7A: C0FC 004C           mulu  #$4c, D0
001C7E: 4840                swap  D0
001C80: 4240                clr.w  D0
001C82: D280                add.l  D0, D1
001C84: 47F4 180C           lea  $C(A4,D1.L), A3
001C88: 2202                move.l  D2, D1
001C8A: 2001                move.l  D1, D0
001C8C: C2FC 004C           mulu  #$4c, D1
001C90: 4840                swap  D0
001C92: C0FC 004C           mulu  #$4c, D0
001C96: 4840                swap  D0
001C98: 4240                clr.w  D0
001C9A: D280                add.l  D0, D1
001C9C: 29B9 0001 53EA 1808 move.l  $000153EA, $8(A4,D1.L)
001CA4: 2051                movea.l  (A1), A0
001CA6: 2608                move.l  A0, D3
001CA8: 6D00 00E4           blt  *cc_0x001D8E  {001D8E}
001CAC: 6F12                ble.s  *cc_0x001CC0  {001CC0}
001CAE: 7001                moveq  #$1, D0
001CB0: B088                cmp.l  A0, D0
001CB2: 6700 006E           beq  *cc_0x001D22  {001D22}
001CB6: 7002                moveq  #$2, D0
001CB8: B088                cmp.l  A0, D0
001CBA: 6600 00D2           bne  *cc_0x001D8E  {001D8E}
001CBE: 6020                bra.s  *j_0x001CE0  {001CE0}
001CC0: 0C2E 007B FFFF      cmpi.b  #$7b, $-1(A6)
001CC6: 6600 00C6           bne  *cc_0x001D8E  {001D8E}
001CCA: 4292                clr.l  (A2)
001CCC: 2052                movea.l  (A2), A0
001CCE: 5292                addq.l  #1, (A2)
001CD0: 11AE FFFF B800      move.b  $-1(A6), $0(A0,A3.L)
001CD6: 7002                moveq  #$2, D0
001CD8: 2040                movea.l  D0, A0
001CDA: 2288                move.l  A0, (A1)
001CDC: 6000 00B0           bra  *cc_0x001D8E  {001D8E}
001CE0: 102E FFFF           move.b  $-1(A6), D0
001CE4: 4880                ext.w  D0
001CE6: 0C40 007B           cmpi.w  #$7b, D0
001CEA: 6D22                blt.s  *cc_0x001D0E  {001D0E}
001CEC: 6F08                ble.s  *cc_0x001CF6  {001CF6}
001CEE: 0C40 007D           cmpi.w  #$7d, D0
001CF2: 661A                bne.s  *cc_0x001D0E  {001D0E}
001CF4: 6004                bra.s  *j_0x001CFA  {001CFA}
001CF6: 4292                clr.l  (A2)
001CF8: 6014                bra.s  *cc_0x001D0E  {001D0E}
001CFA: 7405                moveq  #$5, D2
001CFC: 2042                movea.l  D2, A0
001CFE: 2288                move.l  A0, (A1)
001D00: 4879 0001 5386      pea  $00015386
001D06: 4EBA 0280           jsr  sub_0x001F88  {001F88}
001D0A: 4E71                nop
001D0C: 588F                addq.l  #4, A7
001D0E: 2052                movea.l  (A2), A0
001D10: 5292                addq.l  #1, (A2)
001D12: 11AE FFFF B800      move.b  $-1(A6), $0(A0,A3.L)
001D18: 2052                movea.l  (A2), A0
001D1A: 4230 B800           clr.b  $0(A0,A3.L)
001D1E: 6000 006E           bra  *cc_0x001D8E  {001D8E}
001D22: 4879 0001 7346      pea  $00017346
001D28: 4EBA FD46           jsr  $-2BA(PC)  {001A70}
001D2C: 588F                addq.l  #4, A7
001D2E: 605E                bra.s  *cc_0x001D8E  {001D8E}
001D30: 2202                move.l  D2, D1
001D32: 2001                move.l  D1, D0
001D34: C2FC 004C           mulu  #$4c, D1
001D38: 4840                swap  D0
001D3A: C0FC 004C           mulu  #$4c, D0
001D3E: 4840                swap  D0
001D40: 4240                clr.w  D0
001D42: D280                add.l  D0, D1
001D44: 7002                moveq  #$2, D0
001D46: B0B4 1800           cmp.l  $0(A4,D1.L), D0
001D4A: 6642                bne.s  *cc_0x001D8E  {001D8E}
001D4C: 2202                move.l  D2, D1
001D4E: 2001                move.l  D1, D0
001D50: C2FC 004C           mulu  #$4c, D1
001D54: 4840                swap  D0
001D56: C0FC 004C           mulu  #$4c, D0
001D5A: 4840                swap  D0
001D5C: 4240                clr.w  D0
001D5E: D280                add.l  D0, D1
001D60: 53B4 1808           subq.l  #1, $8(A4,D1.L)
001D64: 6C28                bge.s  *cc_0x001D8E  {001D8E}
001D66: 2202                move.l  D2, D1
001D68: 2001                move.l  D1, D0
001D6A: C2FC 004C           mulu  #$4c, D1
001D6E: 4840                swap  D0
001D70: C0FC 004C           mulu  #$4c, D0
001D74: 4840                swap  D0
001D76: 4240                clr.w  D0
001D78: D280                add.l  D0, D1
001D7A: 4874 1800           pea  $0(A4,D1.L)
001D7E: 4EBA FDF6           jsr  $-20A(PC)  {001B76}
001D82: 4879 0001 7368      pea  $00017368
001D88: 4EBA FCE6           jsr  $-31A(PC)  {001A70}
001D8C: 508F                addq.l  #8, A7
001D8E: 4CEE 1C0C FFE8      movem.l  $-18(A6), D2-D3/A2-A4
001D94: 4E5E                unlk  A6
001D96: 4E75                rts
001D98: 4E56 FFFC           link A6, #$-4
001D9C: 48E7 3E3C           movem.l  D2-D6/A2-A5, -(A7)
001DA0: 243C 0001 5256      move.l  #$15256, D2
001DA6: 263C 0001 53E6      move.l  #$153e6, D3
001DAC: 283C 0001 538E      move.l  #$1538e, D4
001DB2: 4EBA FD9A           jsr  $-266(PC)  {001B4E}
001DB6: 2444                movea.l  D4, A2
001DB8: 2A12                move.l  (A2), D5
001DBA: 486E FFFF           pea  $-1(A6)
001DBE: 2F39 0001 511E      move.l  $0001511E, -(A7)
001DC4: 4EB9 0000 1206      jsr  sub_0x001206
001DCA: 508F                addq.l  #8, A7
001DCC: 4A80                tst.l  D0
001DCE: 6700 012C           beq  *cc_0x001EFC  {001EFC}
001DD2: 2205                move.l  D5, D1
001DD4: 2001                move.l  D1, D0
001DD6: C2FC 004C           mulu  #$4c, D1
001DDA: 4840                swap  D0
001DDC: C0FC 004C           mulu  #$4c, D0
001DE0: 4840                swap  D0
001DE2: 4240                clr.w  D0
001DE4: D280                add.l  D0, D1
001DE6: 2242                movea.l  D2, A1
001DE8: 45F1 1804           lea  $4(A1,D1.L), A2
001DEC: 2205                move.l  D5, D1
001DEE: 2001                move.l  D1, D0
001DF0: C2FC 004C           mulu  #$4c, D1
001DF4: 4840                swap  D0
001DF6: C0FC 004C           mulu  #$4c, D0
001DFA: 4840                swap  D0
001DFC: 4240                clr.w  D0
001DFE: D280                add.l  D0, D1
001E00: 2049                movea.l  A1, A0
001E02: D1C1                adda.l  D1, A0
001E04: 2648                movea.l  A0, A3
001E06: 2205                move.l  D5, D1
001E08: 2001                move.l  D1, D0
001E0A: C2FC 004C           mulu  #$4c, D1
001E0E: 4840                swap  D0
001E10: C0FC 004C           mulu  #$4c, D0
001E14: 4840                swap  D0
001E16: 4240                clr.w  D0
001E18: D280                add.l  D0, D1
001E1A: 2242                movea.l  D2, A1
001E1C: 49F1 180C           lea  $C(A1,D1.L), A4
001E20: 2205                move.l  D5, D1
001E22: 2001                move.l  D1, D0
001E24: C2FC 004C           mulu  #$4c, D1
001E28: 4840                swap  D0
001E2A: C0FC 004C           mulu  #$4c, D0
001E2E: 4840                swap  D0
001E30: 4240                clr.w  D0
001E32: D280                add.l  D0, D1
001E34: 23B9 0001 53EA 1808 move.l  $000153EA, $8(A1,D1.L)
001E3C: 2053                movea.l  (A3), A0
001E3E: 2C08                move.l  A0, D6
001E40: 6D00 013C           blt  *cc_0x001F7E  {001F7E}
001E44: 6F10                ble.s  *cc_0x001E56  {001E56}
001E46: 7003                moveq  #$3, D0
001E48: B088                cmp.l  A0, D0
001E4A: 672A                beq.s  *cc_0x001E76  {001E76}
001E4C: 7004                moveq  #$4, D0
001E4E: B088                cmp.l  A0, D0
001E50: 6600 012C           bne  *cc_0x001F7E  {001F7E}
001E54: 6046                bra.s  *j_0x001E9C  {001E9C}
001E56: 0C2E 0030 FFFF      cmpi.b  #$30, $-1(A6)
001E5C: 6600 0120           bne  *cc_0x001F7E  {001F7E}
001E60: 4292                clr.l  (A2)
001E62: 2052                movea.l  (A2), A0
001E64: 5292                addq.l  #1, (A2)
001E66: 11AE FFFF C800      move.b  $-1(A6), $0(A0,A4.L)
001E6C: 7003                moveq  #$3, D0
001E6E: 2040                movea.l  D0, A0
001E70: 2688                move.l  A0, (A3)
001E72: 6000 010A           bra  *cc_0x001F7E  {001F7E}
001E76: 7004                moveq  #$4, D0
001E78: 2040                movea.l  D0, A0
001E7A: B1D2                cmpa.l  (A2), A0
001E7C: 661C                bne.s  *cc_0x001E9A  {001E9A}
001E7E: 7404                moveq  #$4, D2
001E80: 2042                movea.l  D2, A0
001E82: 2688                move.l  A0, (A3)
001E84: 2F05                move.l  D5, -(A7)
001E86: 4EBA 0130           jsr  sub_0x001FB8  {001FB8}
001E8A: 4E71                nop
001E8C: 2A43                movea.l  D3, A5
001E8E: 5395                subq.l  #1, (A5)
001E90: 588F                addq.l  #4, A7
001E92: 4292                clr.l  (A2)
001E94: 4A95                tst.l  (A5)
001E96: 6602                bne.s  *cc_0x001E9A  {001E9A}
001E98: 602E                bra.s  *j_0x001EC8  {001EC8}
001E9A: 6052                bra.s  *j_0x001EEE  {001EEE}
001E9C: 0C2E 0021 FFFF      cmpi.b  #$21, $-1(A6)
001EA2: 661E                bne.s  *cc_0x001EC2  {001EC2}
001EA4: 2F05                move.l  D5, -(A7)
001EA6: 4EBA 0110           jsr  sub_0x001FB8  {001FB8}
001EAA: 4E71                nop
001EAC: 588F                addq.l  #4, A7
001EAE: 4292                clr.l  (A2)
001EB0: 2052                movea.l  (A2), A0
001EB2: 5292                addq.l  #1, (A2)
001EB4: 11AE FFFF C800      move.b  $-1(A6), $0(A0,A4.L)
001EBA: 2643                movea.l  D3, A3
001EBC: 5393                subq.l  #1, (A3)
001EBE: 6000 00BE           bra  *cc_0x001F7E  {001F7E}
001EC2: 2043                movea.l  D3, A0
001EC4: 5390                subq.l  #1, (A0)
001EC6: 6626                bne.s  *j_0x001EEE  {001EEE}
001EC8: 2052                movea.l  (A2), A0
001ECA: 5292                addq.l  #1, (A2)
001ECC: 11AE FFFF C800      move.b  $-1(A6), $0(A0,A4.L)
001ED2: 2052                movea.l  (A2), A0
001ED4: 4230 C800           clr.b  $0(A0,A4.L)
001ED8: 7405                moveq  #$5, D2
001EDA: 2042                movea.l  D2, A0
001EDC: 2688                move.l  A0, (A3)
001EDE: 2A44                movea.l  D4, A5
001EE0: 4855                pea  (A5)
001EE2: 4EBA 00A4           jsr  sub_0x001F88  {001F88}
001EE6: 4E71                nop
001EE8: 588F                addq.l  #4, A7
001EEA: 6000 0092           bra  *cc_0x001F7E  {001F7E}
001EEE: 2052                movea.l  (A2), A0
001EF0: 5292                addq.l  #1, (A2)
001EF2: 11AE FFFF C800      move.b  $-1(A6), $0(A0,A4.L)
001EF8: 6000 0084           bra  *cc_0x001F7E  {001F7E}
001EFC: 2205                move.l  D5, D1
001EFE: 2001                move.l  D1, D0
001F00: C2FC 004C           mulu  #$4c, D1
001F04: 4840                swap  D0
001F06: C0FC 004C           mulu  #$4c, D0
001F0A: 4840                swap  D0
001F0C: 4240                clr.w  D0
001F0E: D280                add.l  D0, D1
001F10: 2242                movea.l  D2, A1
001F12: 7003                moveq  #$3, D0
001F14: B0B1 1800           cmp.l  $0(A1,D1.L), D0
001F18: 671E                beq.s  *cc_0x001F38  {001F38}
001F1A: 2205                move.l  D5, D1
001F1C: 2001                move.l  D1, D0
001F1E: C2FC 004C           mulu  #$4c, D1
001F22: 4840                swap  D0
001F24: C0FC 004C           mulu  #$4c, D0
001F28: 4840                swap  D0
001F2A: 4240                clr.w  D0
001F2C: D280                add.l  D0, D1
001F2E: 2242                movea.l  D2, A1
001F30: 7004                moveq  #$4, D0
001F32: B0B1 1800           cmp.l  $0(A1,D1.L), D0
001F36: 6646                bne.s  *cc_0x001F7E  {001F7E}
001F38: 2205                move.l  D5, D1
001F3A: 2001                move.l  D1, D0
001F3C: C2FC 004C           mulu  #$4c, D1
001F40: 4840                swap  D0
001F42: C0FC 004C           mulu  #$4c, D0
001F46: 4840                swap  D0
001F48: 4240                clr.w  D0
001F4A: D280                add.l  D0, D1
001F4C: 2242                movea.l  D2, A1
001F4E: 53B1 1808           subq.l  #1, $8(A1,D1.L)
001F52: 6C2A                bge.s  *cc_0x001F7E  {001F7E}
001F54: 2205                move.l  D5, D1
001F56: 2001                move.l  D1, D0
001F58: C2FC 004C           mulu  #$4c, D1
001F5C: 4840                swap  D0
001F5E: C0FC 004C           mulu  #$4c, D0
001F62: 4840                swap  D0
001F64: 4240                clr.w  D0
001F66: D280                add.l  D0, D1
001F68: 2442                movea.l  D2, A2
001F6A: 4872 1800           pea  $0(A2,D1.L)
001F6E: 4EBA FC06           jsr  $-3FA(PC)  {001B76}
001F72: 4879 0001 737E      pea  $0001737E
001F78: 4EBA FAF6           jsr  $-50A(PC)  {001A70}
001F7C: 508F                addq.l  #8, A7
001F7E: 4CEE 3C7C FFD8      movem.l  $-28(A6), D2-D6/A2-A5
001F84: 4E5E                unlk  A6
001F86: 4E75                rts
001F88: 48E7 2020           movem.l  D2/A2, -(A7)
001F8C: 246F 000C           movea.l  $C(A7), A2
001F90: 2412                move.l  (A2), D2
001F92: 5292                addq.l  #1, (A2)
001F94: 7004                moveq  #$4, D0
001F96: B092                cmp.l  (A2), D0
001F98: 6602                bne.s  *cc_0x001F9C  {001F9C}
001F9A: 4292                clr.l  (A2)
001F9C: 202A 0004           move.l  $4(A2), D0
001FA0: B092                cmp.l  (A2), D0
001FA2: 660E                bne.s  *cc_0x001FB2  {001FB2}
001FA4: 4879 0001 7392      pea  $00017392
001FAA: 4EBA FAC4           jsr  $-53C(PC)  {001A70}
001FAE: 588F                addq.l  #4, A7
001FB0: 2482                move.l  D2, (A2)
001FB2: 4CDF 0404           movem.l  (A7)+, D2/A2
001FB6: 4E75                rts
001FB8: 48E7 3820           movem.l  D2-D4/A2, -(A7)
001FBC: 242F 0014           move.l  $14(A7), D2
001FC0: 227C 0001 53E6      movea.l  #$153e6, A1
001FC6: 247C 0001 5256      movea.l  #$15256, A2
001FCC: 2202                move.l  D2, D1
001FCE: 2001                move.l  D1, D0
001FD0: C2FC 004C           mulu  #$4c, D1
001FD4: 4840                swap  D0
001FD6: C0FC 004C           mulu  #$4c, D0
001FDA: 4840                swap  D0
001FDC: 4240                clr.w  D0
001FDE: D280                add.l  D0, D1
001FE0: 2832 1804           move.l  $4(A2,D1.L), D4
001FE4: 5384                subq.l  #1, D4
001FE6: 2004                move.l  D4, D0
001FE8: 5780                subq.l  #3, D0
001FEA: 6C36                bge.s  *cc_0x002022  {002022}
001FEC: 4AB9 0001 5116      tst.l  $00015116
001FF2: 670C                beq.s  *cc_0x002000  {002000}
001FF4: 4879 0001 73AC      pea  $000173AC
001FFA: 4EBA FA74           jsr  $-58C(PC)  {001A70}
001FFE: 588F                addq.l  #4, A7
002000: 2202                move.l  D2, D1
002002: 2001                move.l  D1, D0
002004: C2FC 004C           mulu  #$4c, D1
002008: 4840                swap  D0
00200A: C0FC 004C           mulu  #$4c, D0
00200E: 4840                swap  D0
002010: 4240                clr.w  D0
002012: D280                add.l  D0, D1
002014: 4872 1800           pea  $0(A2,D1.L)
002018: 4EBA FB5C           jsr  $-4A4(PC)  {001B76}
00201C: 588F                addq.l  #4, A7
00201E: 6000 008E           bra  *cc_0x0020AE  {0020AE}
002022: 4291                clr.l  (A1)
002024: 2604                move.l  D4, D3
002026: 5783                subq.l  #3, D3
002028: 6042                bra.s  *j_0x00206C  {00206C}
00202A: 2202                move.l  D2, D1
00202C: 2001                move.l  D1, D0
00202E: C2FC 004C           mulu  #$4c, D1
002032: 4840                swap  D0
002034: C0FC 004C           mulu  #$4c, D0
002038: 4840                swap  D0
00203A: 4240                clr.w  D0
00203C: D280                add.l  D0, D1
00203E: 41F2 180C           lea  $C(A2,D1.L), A0
002042: 1230 3800           move.b  $0(A0,D3.L), D1
002046: 2011                move.l  (A1), D0
002048: E980                asl.l  #4, D0
00204A: 2280                move.l  D0, (A1)
00204C: 0C01 0039           cmpi.b  #$39, D1
002050: 6F0A                ble.s  *cc_0x00205C  {00205C}
002052: 1201                move.b  D1, D1
002054: 4881                ext.w  D1
002056: 48C1                ext.l  D1
002058: 7037                moveq  #$37, D0
00205A: 6008                bra.s  *j_0x002064  {002064}
00205C: 1201                move.b  D1, D1
00205E: 4881                ext.w  D1
002060: 48C1                ext.l  D1
002062: 7030                moveq  #$30, D0
002064: 9280                sub.l  D0, D1
002066: 2001                move.l  D1, D0
002068: D191                add.l  D0, (A1)
00206A: 5283                addq.l  #1, D3
00206C: B684                cmp.l  D4, D3
00206E: 6FBA                ble.s  *cc_0x00202A  {00202A}
002070: 7040                moveq  #$40, D0
002072: B091                cmp.l  (A1), D0
002074: 6D06                blt.s  *cc_0x00207C  {00207C}
002076: 7001                moveq  #$1, D0
002078: B091                cmp.l  (A1), D0
00207A: 6F32                ble.s  *cc_0x0020AE  {0020AE}
00207C: 4AB9 0001 5116      tst.l  $00015116
002082: 670C                beq.s  *cc_0x002090  {002090}
002084: 4879 0001 73D0      pea  $000173D0
00208A: 4EBA F9E4           jsr  $-61C(PC)  {001A70}
00208E: 588F                addq.l  #4, A7
002090: 2202                move.l  D2, D1
002092: 2001                move.l  D1, D0
002094: C2FC 004C           mulu  #$4c, D1
002098: 4840                swap  D0
00209A: C0FC 004C           mulu  #$4c, D0
00209E: 4840                swap  D0
0020A0: 4240                clr.w  D0
0020A2: D280                add.l  D0, D1
0020A4: 4872 1800           pea  $0(A2,D1.L)
0020A8: 4EBA FACC           jsr  $-534(PC)  {001B76}
0020AC: 588F                addq.l  #4, A7
0020AE: 4CDF 041C           movem.l  (A7)+, D2-D4/A2
0020B2: 4E75                rts
0020B4: 2F02                move.l  D2, -(A7)
0020B6: 206F 0008           movea.l  $8(A7), A0
0020BA: 226F 000C           movea.l  $C(A7), A1
0020BE: 202F 0010           move.l  $10(A7), D0
0020C2: 7400                moveq  #$0, D2
0020C4: 4A80                tst.l  D0
0020C6: 6D0C                blt.s  *cc_0x0020D4  {0020D4}
0020C8: 6004                bra.s  *j_0x0020CE  {0020CE}
0020CA: 10D9                move.b  (A1)+, (A0)+
0020CC: 5282                addq.l  #1, D2
0020CE: 4A11                tst.b  (A1)
0020D0: 6716                beq.s  *cc_0x0020E8  {0020E8}
0020D2: 60F6                bra.s  *j_0x0020CA  {0020CA}
0020D4: 2200                move.l  D0, D1
0020D6: 4481                neg.l  D1
0020D8: 2001                move.l  D1, D0
0020DA: 6004                bra.s  *j_0x0020E0  {0020E0}
0020DC: 10D9                move.b  (A1)+, (A0)+
0020DE: 5282                addq.l  #1, D2
0020E0: 4A11                tst.b  (A1)
0020E2: 6704                beq.s  *cc_0x0020E8  {0020E8}
0020E4: B480                cmp.l  D0, D2
0020E6: 6DF4                blt.s  *cc_0x0020DC  {0020DC}
0020E8: 6004                bra.s  *j_0x0020EE  {0020EE}
0020EA: 10FC 0020           move.b  #$20, (A0)+
0020EE: 2202                move.l  D2, D1
0020F0: 5282                addq.l  #1, D2
0020F2: B081                cmp.l  D1, D0
0020F4: 6EF4                bgt.s  *cc_0x0020EA  {0020EA}
0020F6: 2008                move.l  A0, D0
0020F8: 241F                move.l  (A7)+, D2
0020FA: 4E75                rts
0020FC: 4E56 FFF0           link A6, #$-10
002100: 48E7 3E30           movem.l  D2-D6/A2-A3, -(A7)
002104: 246E 0008           movea.l  $8(A6), A2
002108: 202E 000C           move.l  $C(A6), D0
00210C: 242E 0010           move.l  $10(A6), D2
002110: 7C00                moveq  #$0, D6
002112: 47EE FFF0           lea  $-10(A6), A3
002116: 421B                clr.b  (A3)+
002118: 7600                moveq  #$0, D3
00211A: 2A00                move.l  D0, D5
00211C: 4A82                tst.l  D2
00211E: 6C10                bge.s  *cc_0x002130  {002130}
002120: 2202                move.l  D2, D1
002122: 4481                neg.l  D1
002124: 2401                move.l  D1, D2
002126: 4A80                tst.l  D0
002128: 6C06                bge.s  *cc_0x002130  {002130}
00212A: 2A00                move.l  D0, D5
00212C: 4485                neg.l  D5
00212E: 7C01                moveq  #$1, D6
002130: 2202                move.l  D2, D1
002132: 2005                move.l  D5, D0
002134: 0C81 0000 7FFF      cmpi.l  #$7fff, D1
00213A: 6310                bls.s  *cc_0x00214C  {00214C}
00213C: 0C81 FFFF 7FFF      cmpi.l  #$ffff7fff, D1
002142: 6208                bhi.s  *cc_0x00214C  {00214C}
002144: 4EB9 0000 30F2      jsr  sub_0x0030F2
00214A: 6008                bra.s  *j_0x002154  {002154}
00214C: 80C1                divu  D1, D0
00214E: 69F4                bvs.s  *cc_0x002144  {002144}
002150: 4240                clr.w  D0
002152: 4840                swap  D0
002154: 2800                move.l  D0, D4
002156: 2202                move.l  D2, D1
002158: 2005                move.l  D5, D0
00215A: 0C81 0000 7FFF      cmpi.l  #$7fff, D1
002160: 6310                bls.s  *cc_0x002172  {002172}
002162: 0C81 FFFF 7FFF      cmpi.l  #$ffff7fff, D1
002168: 6208                bhi.s  *cc_0x002172  {002172}
00216A: 4EB9 0000 30FA      jsr  sub_0x0030FA
002170: 600A                bra.s  *j_0x00217C  {00217C}
002172: 80C1                divu  D1, D0
002174: 69F4                bvs.s  *cc_0x00216A  {00216A}
002176: 4840                swap  D0
002178: 4240                clr.w  D0
00217A: 4840                swap  D0
00217C: 2040                movea.l  D0, A0
00217E: 2A08                move.l  A0, D5
002180: 720A                moveq  #$A, D1
002182: B284                cmp.l  D4, D1
002184: 6F0C                ble.s  *cc_0x002192  {002192}
002186: 204B                movea.l  A3, A0
002188: 528B                addq.l  #1, A3
00218A: 2004                move.l  D4, D0
00218C: 7230                moveq  #$30, D1
00218E: D081                add.l  D1, D0
002190: 600A                bra.s  *j_0x00219C  {00219C}
002192: 204B                movea.l  A3, A0
002194: 528B                addq.l  #1, A3
002196: 2004                move.l  D4, D0
002198: 72C9                moveq  #$-37, D1
00219A: 9081                sub.l  D1, D0
00219C: 1080                move.b  D0, (A0)
00219E: 5283                addq.l  #1, D3
0021A0: 4A85                tst.l  D5
0021A2: 668C                bne.s  *cc_0x002130  {002130}
0021A4: 4A86                tst.l  D6
0021A6: 6706                beq.s  *cc_0x0021AE  {0021AE}
0021A8: 16FC 002D           move.b  #$2d, (A3)+
0021AC: 5283                addq.l  #1, D3
0021AE: 4AAE 0014           tst.l  $14(A6)
0021B2: 6F10                ble.s  *cc_0x0021C4  {0021C4}
0021B4: 6004                bra.s  *j_0x0021BA  {0021BA}
0021B6: 14EE 001B           move.b  $1B(A6), (A2)+
0021BA: 2203                move.l  D3, D1
0021BC: 5283                addq.l  #1, D3
0021BE: B2AE 0014           cmp.l  $14(A6), D1
0021C2: 6DF2                blt.s  *cc_0x0021B6  {0021B6}
0021C4: 6002                bra.s  *j_0x0021C8  {0021C8}
0021C6: 14D3                move.b  (A3), (A2)+
0021C8: 4A23                tst.b  -(A3)
0021CA: 66FA                bne.s  *cc_0x0021C6  {0021C6}
0021CC: 4AAE 0014           tst.l  $14(A6)
0021D0: 6C14                bge.s  *cc_0x0021E6  {0021E6}
0021D2: 6004                bra.s  *j_0x0021D8  {0021D8}
0021D4: 14EE 001B           move.b  $1B(A6), (A2)+
0021D8: 222E 0014           move.l  $14(A6), D1
0021DC: 4481                neg.l  D1
0021DE: 2003                move.l  D3, D0
0021E0: 5283                addq.l  #1, D3
0021E2: B280                cmp.l  D0, D1
0021E4: 6EEE                bgt.s  *cc_0x0021D4  {0021D4}
0021E6: 200A                move.l  A2, D0
0021E8: 4CEE 0C7C FFD4      movem.l  $-2C(A6), D2-D6/A2-A3
0021EE: 4E5E                unlk  A6
0021F0: 4E75                rts
0021F2: 202F 0004           move.l  $4(A7), D0
0021F6: 486F 0008           pea  $8(A7)
0021FA: 2F00                move.l  D0, -(A7)
0021FC: 4EBA 004C           jsr  sub_0x00224A  {00224A}
002200: 4E71                nop
002202: 508F                addq.l  #8, A7
002204: 4E75                rts

         0  1  2  3  4  5  6  7  8  9  A  B  C  D  E  F
002200:                   4E 56 FF 7C 48 E7 20 20 48 6E             NV.|H.  Hn
002210: 00 08 48 6E FF 7C 4E BA 00 32 4E 71 50 8F 24 00       ..Hn.|N..2NqP.$.
002220: 45 EE FF 7C 60 14 20 4A 52 8A 10 10 48 80 48 C0       E..|`. JR...H.H.
002230: 2F 00 4E B9 00 00 13 B2 58 8F 4A 12 66 E8 20 02       /.N.....X.J.f. .
002240: 4C EE 04 04 FF 74 4E 5E 4E                            L....tN^N

00224A: 48E7 3E38           movem.l  D2-D6/A2-A4, -(A7)
00224E: 206F 0024           movea.l  $24(A7), A0
002252: 246F 0028           movea.l  $28(A7), A2
002256: 227C 0000 20FC      movea.l  #$20fc, A1
00225C: 2609                move.l  A1, D3
00225E: 2C08                move.l  A0, D6
002260: 47EA 0004           lea  $4(A2), A3
002264: 2852                movea.l  (A2), A4
002266: 6000 01B6           bra  *j_0x00241E  {00241E}
00226A: 0C01 0025           cmpi.b  #$25, D1
00226E: 670E                beq.s  *cc_0x00227E  {00227E}
002270: 0C01 000A           cmpi.b  #$a, D1
002274: 6604                bne.s  *cc_0x00227A  {00227A}
002276: 10FC 000D           move.b  #$d, (A0)+
00227A: 6000 01A0           bra  *j_0x00241C  {00241C}
00227E: 7801                moveq  #$1, D4
002280: 7A20                moveq  #$20, D5
002282: 4240                clr.w  D0
002284: 121C                move.b  (A4)+, D1
002286: 0C01 002D           cmpi.b  #$2d, D1
00228A: 6604                bne.s  *cc_0x002290  {002290}
00228C: 78FF                moveq  #$-1, D4
00228E: 121C                move.b  (A4)+, D1
002290: 0C01 0030           cmpi.b  #$30, D1
002294: 6604                bne.s  *cc_0x00229A  {00229A}
002296: 7A30                moveq  #$30, D5
002298: 121C                move.b  (A4)+, D1
00229A: 0C01 0030           cmpi.b  #$30, D1
00229E: 6D10                blt.s  *cc_0x0022B0  {0022B0}
0022A0: 0C01 0039           cmpi.b  #$39, D1
0022A4: 6E0A                bgt.s  *cc_0x0022B0  {0022B0}
0022A6: 1001                move.b  D1, D0
0022A8: 4880                ext.w  D0
0022AA: 0440 0030           subi.w  #$30, D0
0022AE: 121C                move.b  (A4)+, D1
0022B0: 0C01 0030           cmpi.b  #$30, D1
0022B4: 6D22                blt.s  *cc_0x0022D8  {0022D8}
0022B6: 0C01 0039           cmpi.b  #$39, D1
0022BA: 6E1C                bgt.s  *cc_0x0022D8  {0022D8}
0022BC: 1201                move.b  D1, D1
0022BE: 4881                ext.w  D1
0022C0: 48C1                ext.l  D1
0022C2: 7430                moveq  #$30, D2
0022C4: 9282                sub.l  D2, D1
0022C6: 3000                move.w  D0, D0
0022C8: 48C0                ext.l  D0
0022CA: D080                add.l  D0, D0
0022CC: 2400                move.l  D0, D2
0022CE: E580                asl.l  #2, D0
0022D0: D082                add.l  D2, D0
0022D2: D280                add.l  D0, D1
0022D4: 3001                move.w  D1, D0
0022D6: 121C                move.b  (A4)+, D1
0022D8: C9C0                muls  D0, D4
0022DA: 0C01 006C           cmpi.b  #$6c, D1
0022DE: 6602                bne.s  *cc_0x0022E2  {0022E2}
0022E0: 121C                move.b  (A4)+, D1
0022E2: 1001                move.b  D1, D0
0022E4: 4880                ext.w  D0
0022E6: 0C40 0063           cmpi.w  #$63, D0
0022EA: 6D06                blt.s  *cc_0x0022F2  {0022F2}
0022EC: 6E38                bgt.s  *cc_0x002326  {002326}
0022EE: 6000 0112           bra  *j_0x002402  {002402}
0022F2: 0C40 004C           cmpi.w  #$4c, D0
0022F6: 6D06                blt.s  *cc_0x0022FE  {0022FE}
0022F8: 6E18                bgt.s  *cc_0x002312  {002312}
0022FA: 6000 00AA           bra  *j_0x0023A6  {0023A6}
0022FE: 4A40                tst.w  D0
002300: 6D00 0116           blt  *cc_0x002418  {002418}
002304: 6F00 010A           ble  *cc_0x002410  {002410}
002308: 0C40 0042           cmpi.w  #$42, D0
00230C: 6600 010A           bne  *cc_0x002418  {002418}
002310: 6058                bra.s  *j_0x00236A  {00236A}
002312: 0C40 004E           cmpi.w  #$4e, D0
002316: 6D00 0100           blt  *cc_0x002418  {002418}
00231A: 6F3A                ble.s  *cc_0x002356  {002356}
00231C: 0C40 0057           cmpi.w  #$57, D0
002320: 6600 00F6           bne  *cc_0x002418  {002418}
002324: 605A                bra.s  *j_0x002380  {002380}
002326: 0C40 0075           cmpi.w  #$75, D0
00232A: 6D06                blt.s  *cc_0x002332  {002332}
00232C: 6E1C                bgt.s  *cc_0x00234A  {00234A}
00232E: 6000 0098           bra  *j_0x0023C8  {0023C8}
002332: 0C40 0064           cmpi.w  #$64, D0
002336: 6D00 00E0           blt  *cc_0x002418  {002418}
00233A: 6F00 0078           ble  *cc_0x0023B4  {0023B4}
00233E: 0C40 0073           cmpi.w  #$73, D0
002342: 6600 00D4           bne  *cc_0x002418  {002418}
002346: 6000 00A6           bra  *j_0x0023EE  {0023EE}
00234A: 0C40 0078           cmpi.w  #$78, D0
00234E: 6600 00C8           bne  *cc_0x002418  {002418}
002352: 6000 008A           bra  *j_0x0023DE  {0023DE}
002356: 4878 0030           pea  $0030
00235A: 4878 0001           pea  $0001
00235E: 4878 0010           pea  $0010
002362: 201B                move.l  (A3)+, D0
002364: 720F                moveq  #$F, D1
002366: C081                and.l  D1, D0
002368: 602A                bra.s  *j_0x002394  {002394}
00236A: 4878 0030           pea  $0030
00236E: 4878 0002           pea  $0002
002372: 4878 0010           pea  $0010
002376: 201B                move.l  (A3)+, D0
002378: 0280 0000 00FF      andi.l  #$ff, D0
00237E: 6014                bra.s  *j_0x002394  {002394}
002380: 4878 0030           pea  $0030
002384: 4878 0004           pea  $0004
002388: 4878 0010           pea  $0010
00238C: 201B                move.l  (A3)+, D0
00238E: 0280 0000 FFFF      andi.l  #$ffff, D0
002394: 2F00                move.l  D0, -(A7)
002396: 2F08                move.l  A0, -(A7)
002398: 4EBA FD62           jsr  $-29E(PC)  {0020FC}
00239C: 4FEF 0014           lea  $14(A7), A7
0023A0: 2040                movea.l  D0, A0
0023A2: 6000 007A           bra  *j_0x00241E  {00241E}
0023A6: 4878 0030           pea  $0030
0023AA: 4878 0008           pea  $0008
0023AE: 4878 0010           pea  $0010
0023B2: 6026                bra.s  *j_0x0023DA  {0023DA}
0023B4: 1005                move.b  D5, D0
0023B6: 4880                ext.w  D0
0023B8: 48C0                ext.l  D0
0023BA: 2F00                move.l  D0, -(A7)
0023BC: 3804                move.w  D4, D4
0023BE: 48C4                ext.l  D4
0023C0: 2F04                move.l  D4, -(A7)
0023C2: 4878 FFF6           pea  $FFF6
0023C6: 6012                bra.s  *j_0x0023DA  {0023DA}
0023C8: 1005                move.b  D5, D0
0023CA: 4880                ext.w  D0
0023CC: 48C0                ext.l  D0
0023CE: 2F00                move.l  D0, -(A7)
0023D0: 3804                move.w  D4, D4
0023D2: 48C4                ext.l  D4
0023D4: 2F04                move.l  D4, -(A7)
0023D6: 4878 000A           pea  $000A
0023DA: 2F1B                move.l  (A3)+, -(A7)
0023DC: 60B8                bra.s  *j_0x002396  {002396}
0023DE: 1005                move.b  D5, D0
0023E0: 4880                ext.w  D0
0023E2: 48C0                ext.l  D0
0023E4: 2F00                move.l  D0, -(A7)
0023E6: 3804                move.w  D4, D4
0023E8: 48C4                ext.l  D4
0023EA: 2F04                move.l  D4, -(A7)
0023EC: 60C0                bra.s  *j_0x0023AE  {0023AE}
0023EE: 3004                move.w  D4, D0
0023F0: 48C0                ext.l  D0
0023F2: 2F00                move.l  D0, -(A7)
0023F4: 2F1B                move.l  (A3)+, -(A7)
0023F6: 2F08                move.l  A0, -(A7)
0023F8: 4EBA FCBA           jsr  $-346(PC)  {0020B4}
0023FC: 4FEF 000C           lea  $C(A7), A7
002400: 609E                bra.s  *j_0x0023A0  {0023A0}
002402: 2248                movea.l  A0, A1
002404: 5288                addq.l  #1, A0
002406: 244B                movea.l  A3, A2
002408: 588B                addq.l  #4, A3
00240A: 12AA 0003           move.b  $3(A2), (A1)
00240E: 600E                bra.s  *j_0x00241E  {00241E}
002410: 10FC 0025           move.b  #$25, (A0)+
002414: 538C                subq.l  #1, A4
002416: 6006                bra.s  *j_0x00241E  {00241E}
002418: 10FC 0025           move.b  #$25, (A0)+
00241C: 10C1                move.b  D1, (A0)+
00241E: 121C                move.b  (A4)+, D1
002420: 6600 FE48           bne  *cc_0x00226A  {00226A}
002424: 4210                clr.b  (A0)
002426: 2208                move.l  A0, D1
002428: 9286                sub.l  D6, D1
00242A: 2001                move.l  D1, D0
00242C: 4CDF 1C7C           movem.l  (A7)+, D2-D6/A2-A4
002430: 4E75                rts

         0  1  2  3  4  5  6  7  8  9  A  B  C  D  E  F
002430:       10 2F 00 07 0C 00 00 30 6D 12 0C 00 00 39         ./.....0m....9
002440: 6E 0C 10 00 48 80 48 C0 72 30 90 81 60 2A 0C 00       n...H.H.r0..`*..
002450: 00 41 6D 12 0C 00 00 46 6E 0C 10 00 48 80 48 C0       .Am....Fn...H.H.
002460: 72 C9 D0 81 60 12 0C 00 00 47 6D 0A 0C 00 00 5A       r...`....Gm....Z
002470: 6E 04 70 FE 60 02 70 FF 4E 75 10 2F 00 07 0C 00       n.p.`.p.Nu./....
002480: 00 30 6D 06 0C 00 00 39 6F 18 0C 00 00 41 6D 06       .0m....9o....Am.
002490: 0C 00 00 46 6F 0C 0C 00 00 24 67 06 0C 00 00 26       ...Fo....$g....&
0024A0: 66 06 70 6E 60 00 00 02 10 00 48 80 48 C0 4E 75       f.pn`.....H.H.Nu
0024B0: 22 7C 00 01 54 46 60 02 52 91 20 51 0C 10 00 20       "|..TF`.R. Q... 
0024C0: 67 F6 20 51 0C 10 00 09 67 EE 20 51 10 10 10 00       g. Q....g. Q....
0024D0: 48 80 48 C0 4E 75 48 E7 20 30 24 6F 00 10 24 2F       H.H.NuH. 0$o..$/
0024E0: 00 14 26 7C 00 01 54 46 4E BA FF C6 60 06 20 53       ..&|..TFN...`. S
0024F0: 52 93 14 D0 20 53 0C 10 00 41 6D 08 20 53 0C 10       R... S...Am. S..
002500: 00 5A 6F 10 20 53 0C 10 00 30 6D 0C 20 53 0C 10       .Zo. S...0m. S..
002510: 00 39 6E 04 53 82 66 D6 42 12 4C DF 0C 04 4E 75       .9n.S.f.B.L...Nu
002520: 48 E7 38 30 24 6F 00 18 24 2F 00 1C 26 7C 00 01       H.80$o..$/..&|..
002530: 54 46 4E BA FF 7C 78 00 20 53 0C 10 00 24 66 06       TFN..|x. S...$f.
002540: 52 93 74 10 60 0C 20 53 0C 10 00 26 66 04 52 93       R.t.`. S...&f.R.
002550: 74 0A 42 92 20 53 52 93 10 10 48 80 48 C0 2F 00       t.B. SR...H.H./.
002560: 4E BA FE D0 58 8F 26 00 B6 82 6C 06 70 FE B0 83       N...X.&...l.p...
002570: 66 04 70 FF 60 2A 4A 83 6D 10 20 12 22 00 20 02       f.p.`*J.m. .". .
002580: 4E B9 00 00 30 90 D0 83 24 80 4A 83 6D 02 78 01       N...0...$.J.m.x.
002590: 70 FF B0 83 66 BE 4A 84 66 02 60 D6 53 93 70 00       p...f.J.f.`.S.p.
0025A0: 4C DF 0C 1C 4E 75 4E 56 FF F4 48 E7 3E 38 24 2E       L...NuNV..H.>8$.
0025B0: 00 08 24 6E 00 0C 26 2E 00 10 42 AE FF F8 7C 00       ..$n..&...B...|.
0025C0: 70 FF 2D 40 FF F4 28 7C 00 00 22 06 2D 7C 00 01       p.-@..(|..".-|..
0025D0: 54 4A FF FC 26 4A 42 13 2F 02 48 79 00 01 73 F4       TJ..&JB./.Hy..s.
0025E0: 4E 94 50 8F 7A 00 4E B9 00 00 13 8C 18 00 48 80       N.P.z.N.......H.
0025F0: 0C 40 00 18 6D 04 6E 16 60 28 0C 40 00 08 6D 00       .@..m.n.`(.@..m.
002600: 00 84 6F 30 0C 40 00 0D 66 00 00 7A 60 1A 0C 40       ..o0.@..f..z`..@
002610: 00 1B 6D 00 00 70 6F 1E 0C 40 00 7F 66 00 00 66       ..m..po..@..f..f
002620: 60 0C 7A 08 60 00 00 6C 7A 01 60 00 00 66 7A 02       `.z.`..lz.`..fz.
002630: 60 00 00 60 60 F8 4E B9 00 00 13 8C 18 00 0C 04       `..``.N.........
002640: 00 5B 67 06 0C 04 00 4F 66 48 4E B9 00 00 13 8C       .[g....OfHN.....
002650: 30 00 0C 40 00 41 6D 3A 0C 40 00 44 6E 34 04 40       0..@.Am:.@.Dn4.@
002660: 00 41 D0 40 30 3B 00 06 4E FB 00 02 00 08 00 0C       .A.@0;..N.......
002670: 00 10 00 14 7A 03 60 1A 7A 04 60 16 7A 06 60 12       ....z.`.z.`.z.`.
002680: 7A 05 60 0E 0C 04 00 20 6D 08 0C 04 00 7F 6C 02       z.`.... m.....l.
002690: 7A 07 20 05 72 01 B2 80 6E 00 01 78 72 08 B2 80       z. .r...n..xr...
0026A0: 6D 00 01 70 D0 80 30 3B 08 04 4E FB 00 02 01 64       m..p..0;..N....d
0026B0: 00 5A 00 B6 00 FE 00 90 00 A2 00 10 01 4E 20 03       .Z...........N .
0026C0: 53 80 22 2E FF F8 B2 80 6C 00 01 48 52 AE FF F8       S.".....l..HR...
0026D0: 52 86 BC AE FF F8 67 0A 48 79 00 01 73 F8 4E 94       R.....g.Hy..s.N.
0026E0: 58 8F 12 04 48 81 48 C1 2F 01 4E B9 00 00 13 B2       X...H.H./.N.....
0026F0: 20 4B 52 8B 58 8F 60 06 10 10 10 C4 18 00 4A 04        KR.X.`.......J.
002700: 66 F6 42 10 60 00 01 0C 4A 86 6F 00 01 06 53 AE       f.B.`...J.o...S.
002710: FF F8 53 86 53 8B 20 4B 60 02 52 88 10 A8 00 01       ..S.S. K`.R.....
002720: 66 F8 BC AE FF F8 66 0E 48 79 00 01 73 FC 4E 94       f.....f.Hy..s.N.
002730: 58 8F 60 00 00 DE 48 79 00 01 74 00 60 F0 4A 86       X.`...Hy..t.`.J.
002740: 6F 00 00 D0 53 86 53 8B 48 79 00 01 74 06 60 DE       o...S.S.Hy..t.`.
002750: BC AE FF F8 6C 00 00 BC 52 86 52 8B 48 79 00 01       ....l...R.R.Hy..
002760: 74 0A 60 CA 4A AE 00 14 67 00 00 A8 70 09 B0 AE       t.`.J...g...p...
002770: FF F4 6F 04 52 AE FF F4 26 4A 20 2E FF F4 E9 80       ..o.R...&J .....
002780: 22 00 E5 80 D0 81 20 7C 00 01 54 4A D1 C0 16 D8       "..... |..TJ....
002790: 66 FC 53 8B 20 0B 28 0A 90 84 2C 00 2D 46 FF F8       f.S. .(...,.-F..
0027A0: 2F 0A 2F 02 48 79 00 01 74 0E 60 48 4A AE 00 14       /./.Hy..t.`HJ...
0027B0: 67 60 4A AE FF F4 6D 04 53 AE FF F4 4A AE FF F4       g`J...m.S...J...
0027C0: 6D 3A 26 4A 20 2E FF F4 E9 80 22 00 E5 80 D0 81       m:&J .....".....
0027D0: 20 7C 00 01 54 4A D1 C0 16 D8 66 FC 53 8B 20 0B        |..TJ....f.S. .
0027E0: 28 0A 90 84 2C 00 2D 46 FF F8 2F 0A 2F 02 48 79       (...,.-F.././.Hy
0027F0: 00 01 74 18 4E 94 4F EF 00 0C 60 16 26 4A 42 AE       ..t.N.O...`.&JB.
002800: FF F8 7C 00 42 13 2F 02 48 79 00 01 74 22 4E 94       ..|.B./.Hy..t"N.
002810: 50 8F 70 01 B0 85 66 00 FD CC 48 79 00 01 74 2A       P.p...f...Hy..t*
002820: 4E 94 4A AE 00 14 58 8F 67 00 00 8A 0C 12 00 20       N.J...X.g...... 
002830: 6D 00 00 82 74 00 20 02 E9 80 22 00 E5 80 D0 81       m...t. ...".....
002840: 20 7C 00 01 54 4A 48 70 08 00 2F 0A 4E B9 00 00        |..TJHp../.N...
002850: 17 E8 50 8F 4A 80 66 08 52 82 70 0A B0 82 6E D6       ..P.J.f.R.p...n.
002860: 70 0A B0 82 66 02 53 82 60 36 22 02 53 81 20 01       p...f.S.`6".S. .
002870: E9 80 22 00 E5 80 D0 81 20 7C 00 01 54 4A 48 70       .."..... |..TJHp
002880: 08 00 20 02 E9 80 22 00 E5 80 D0 81 20 7C 00 01       .. ..."..... |..
002890: 54 4A 48 70 08 00 4E B9 00 00 16 E4 53 82 50 8F       TJHp..N.....S.P.
0028A0: 4A 82 6E C6 2F 0A 48 79 00 01 54 4A 4E B9 00 00       J.n./.Hy..TJN...
0028B0: 16 E4 50 8F 20 0A 4C EE 1C 7C FF D4 4E 5E 4E 75       ..P. .L..|..N^Nu
0028C0: 4E 56 FF FC 48 78 00 10 48 6E FF FC 4E BA FC 52       NV..Hx..Hn..N..R
0028D0: 50 8F 4A 80 67 04 70 FF 60 18 2F 2E FF FC 48 79       P.J.g.p.`./...Hy
0028E0: 00 01 74 2C 4E BA F9 20 20 6E FF FC 4E 90 50 8F       ..t,N..  n..N.P.
0028F0: 70 00 4E 5E 4E 75 4E 56 FF F4 48 E7 20 20 24 7C       p.N^NuNV..H.  $|
002900: 00 00 22 06 2D 79 00 01 75 28 FF F8 20 39 00 01       ..".-y..u(.. 9..
002910: 75 2C D0 AE FF F8 2D 40 FF FC 4E BA FB 94 10 00       u,....-@..N.....
002920: 67 16 48 78 00 10 48 6E FF F8 4E BA FB F4 50 8F       g.Hx..Hn..N...P.
002930: 4A 80 67 04 60 00 00 A6 20 39 00 01 75 2C D0 AE       J.g.`... 9..u,..
002940: FF F8 2D 40 FF FC 4E BA FB 68 4E BA FB 64 10 00       ..-@..N..hN..d..
002950: 67 4A 20 79 00 01 54 46 0C 10 00 3A 66 2A 52 B9       gJ y..TF...:f*R.
002960: 00 01 54 46 48 78 00 10 48 6E FF F4 4E BA FB B2       ..TFHx..Hn..N...
002970: 50 8F 4A 80 67 02 60 64 20 2E FF F4 D0 AE FF F8       P.J.g.`d .......
002980: 53 80 2D 40 FF FC 60 14 48 78 00 10 48 6E FF FC       S.-@..`.Hx..Hn..
002990: 4E BA FB 8E 50 8F 4A 80 67 02 60 40 20 2E FF FC       N...P.J.g.`@ ...
0029A0: 52 80 23 C0 00 01 75 28 20 2E FF FC 90 AE FF F8       R.#...u( .......
0029B0: 23 C0 00 01 75 2C 70 01 23 C0 00 01 75 24 2F 2E       #...u,p.#...u$/.
0029C0: FF FC 2F 2E FF F8 48 79 00 01 74 34 4E 92 20 2E       ../...Hy..t4N. .
0029D0: FF FC 4F EF 00 0C B0 AE FF F8 6C 06 70 FF 60 00       ..O.......l.p.`.
0029E0: 00 BE 24 2E FF F8 60 00 00 AC 2F 02 48 79 00 01       ..$...`.../.Hy..
0029F0: 74 50 4E 92 50 8F 42 AE FF F4 20 2E FF F4 D0 82       tPN.P.B... .....
002A00: B0 AE FF FC 6F 0C 48 79 00 01 74 54 4E 92 58 8F       ....o.Hy..tTN.X.
002A10: 60 18 20 6E FF F4 10 30 28 00 48 80 48 C0 2F 00       `. n...0(.H.H./.
002A20: 48 79 00 01 74 58 4E 92 50 8F 52 AE FF F4 70 10       Hy..tXN.P.R...p.
002A30: B0 AE FF F4 6E C4 48 79 00 01 74 5C 4E 92 58 8F       ....n.Hy..t\N.X.
002A40: 42 AE FF F4 20 2E FF F4 D0 82 B0 AE FF FC 6E 36       B... .........n6
002A50: 20 6E FF F4 10 30 28 00 02 00 00 7F 0C 00 00 20        n...0(........ 
002A60: 6D 06 0C 00 00 7F 6D 02 70 2E 10 00 48 80 48 C0       m.....m.p...H.H.
002A70: 2F 00 4E B9 00 00 13 B2 52 AE FF F4 58 8F 70 10       /.N.....R...X.p.
002A80: B0 AE FF F4 6E BE 48 79 00 01 74 60 4E 92 70 10       ....n.Hy..t`N.p.
002A90: D4 80 58 8F B4 AE FF FC 6F 00 FF 50 70 00 4C EE       ..X.....o..Pp.L.
002AA0: 04 04 FF EC 4E 5E 4E 75 4E 56 FF F8 48 E7 3C 38       ....N^NuNV..H.<8
002AB0: 24 7C 00 01 54 46 26 7C 00 00 22 06 28 7C 00 01       $|..TF&|..".(|..
002AC0: 53 F6 7A 01 2D 79 00 01 75 30 FF F8 20 52 4A 10       S.z.-y..u0.. RJ.
002AD0: 67 1C 48 78 00 10 48 6E FF F8 4E BA FA 44 50 8F       g.Hx..Hn..N..DP.
002AE0: 4A 80 67 0A 72 FF 20 41 20 08 60 00 01 76 23 EE       J.g.r. A .`..v#.
002AF0: FF F8 00 01 75 30 2F 2E FF F8 48 79 00 01 74 62       ....u0/...Hy..tb
002B00: 4E 93 24 05 50 8F 78 00 20 6E FF F8 10 10 48 80       N.$.P.x. n....H.
002B10: 48 C0 2F 00 2F 2E FF F8 48 79 00 01 74 78 4E 93       H././...Hy..txN.
002B20: 48 78 00 40 48 54 48 79 00 01 74 7E 4E BA FA 78       Hx.@HTHy..t~N..x
002B30: 48 54 4E B9 00 00 17 BE 20 4C 4F EF 00 1C 24 88       HTN..... LO...$.
002B40: 76 01 20 52 10 10 48 80 48 C0 2F 00 4E BA F9 2C       v. R..H.H./.N..,
002B50: 58 8F 30 00 0C 40 00 56 6D 06 6E 4C 60 00 00 76       X.0..@.Vm.nL`..v
002B60: 4A 40 6D 00 00 CC 6F 00 00 D6 0C 40 00 20 6D 2E       J@m...o....@. m.
002B70: 0C 40 00 2E 6E 28 D0 40 30 3B 00 C6 4E FB 00 02       .@..n(.@0;..N...
002B80: 00 BE 00 B0 00 8A 00 B0 00 B0 00 B0 00 B0 00 8A       ................
002B90: 00 B0 00 B0 00 B0 00 B0 00 BE 00 B0 00 40 0C 40       .............@.@
002BA0: 00 3D 66 00 00 8C 60 1E 0C 40 00 5E 6D 00 00 82       .=f...`..@.^m...
002BB0: 6F 1A 0C 40 00 6E 66 00 00 78 60 1E 60 00 00 80       o..@.nf..x`.`...
002BC0: 78 01 60 00 00 7A 74 00 60 00 00 74 24 05 44 82       x.`..zt.`..t$.D.
002BD0: 60 00 00 6C 24 05 60 00 00 66 48 78 00 10 48 6E       `..l$.`..fHx..Hn
002BE0: FF FC 4E BA F9 3C 50 8F 4A 80 67 08 48 79 00 01       ..N..<P.J.g.Hy..
002BF0: 74 82 60 42 20 6E FF F8 10 AE FF FF 20 45 20 08       t.`B n...... E .
002C00: D1 AE FF F8 76 00 53 92 60 34 20 52 52 92 10 10       ....v.S.`4 RR...
002C10: 60 0E 20 6E FF F8 52 AE FF F8 22 52 52 92 10 91       `. n..R..."RR...
002C20: 20 52 B0 10 67 06 20 52 4A 10 66 E6 76 00 60 0E        R..g. RJ.f.v.`.
002C30: 48 79 00 01 74 92 4E 93 20 52 58 8F 42 10 20 52       Hy..t.N. RX.B. R
002C40: 4A 10 67 02 52 92 20 52 4A 10 66 00 FE F6 4A 83       J.g.R. RJ.f...J.
002C50: 67 08 20 42 20 08 D1 AE FF F8 4A 84 67 00 FE AA       g. B .....J.g...
002C60: 70 00 4C EE 1C 3C FF DC 4E 5E 4E 75 4E 56 FE F4       p.L..<..N^NuNV..
002C70: 48 E7 3E 38 70 00 28 40 42 AE FF F4 2D 7C 7F FF       H.>8p.(@B...-|..
002C80: FF FF FF FC 26 40 24 7C 00 01 54 46 2F 12 48 79       ....&@$|..TF/.Hy
002C90: 00 01 74 B4 4E BA F5 70 50 8F 42 03 24 BC 00 01       ..t.N..pP.B.$...
002CA0: 53 F6 74 50 4E B9 00 00 13 8C 12 00 0C 01 00 20       S.tPN.......... 
002CB0: 6F F2 22 52 52 92 12 81 4E B9 00 00 13 8C 12 00       o."RR...N.......
002CC0: 0C 01 00 20 6D 04 53 82 66 E8 20 52 42 10 24 BC       ... m.S.f. RB.$.
002CD0: 00 01 53 F6 20 52 4A 10 67 C2 20 52 0C 10 00 53       ..S. RJ.g. R...S
002CE0: 66 00 01 72 20 52 0C 28 00 30 00 01 6D 00 01 66       f..r R.(.0..m..f
002CF0: 20 52 0C 28 00 39 00 01 6E 00 01 5A 52 92 22 52        R.(.9..n..ZR."R
002D00: 52 92 16 11 78 00 74 00 20 52 52 92 10 10 48 80       R...x.t. RR...H.
002D10: 48 C0 2F 00 4E BA F7 1C 58 8F 2C 00 6D 42 20 52       H./.N...X.,.mB R
002D20: 52 92 10 10 48 80 48 C0 2F 00 4E BA F7 06 58 8F       R...H.H./.N...X.
002D30: 12 00 6D 2C 20 06 E9 80 12 01 48 81 48 C1 D0 81       ..m, .....H.H...
002D40: 22 02 52 82 41 EE FE F4 10 00 11 80 18 00 72 00       ".R.A.........r.
002D50: 12 00 D8 81 70 00 10 2E FE F4 22 40 B3 C2 64 A8       ....p....."@..d.
002D60: 70 00 10 2E FE F4 22 40 20 42 53 88 B3 C8 66 00       p....."@ BS...f.
002D70: 00 E4 20 52 4A 10 66 00 00 DC 20 04 52 80 02 80       .. RJ.f... .R...
002D80: 00 00 00 FF 66 00 00 CE 78 00 7C 00 10 03 48 80       ....f...x.|...H.
002D90: 0C 40 00 31 6D 3E 0C 40 00 39 6E 38 D0 40 30 3B       .@.1m>.@.9n8.@0;
002DA0: 00 A4 4E FB 00 02 00 12 00 18 00 1E 00 2E 00 2E       ..N.............
002DB0: 00 2E 00 24 00 28 00 2C 78 02 7C 03 60 16 78 03       ...$.(.,x.|.`.x.
002DC0: 7C 04 60 10 78 04 7C 05 60 0A 78 04 60 06 78 03       |.`.x.|.`.x.`.x.
002DD0: 60 02 78 02 4A 84 67 24 7A 00 74 01 60 16 41 EE       `.x.J.g$z.t.`.A.
002DE0: FE F4 72 00 12 30 28 00 20 01 22 05 E1 81 D0 81       ..r..0(. .".....
002DF0: 2A 00 52 82 B4 84 6F E6 DA AE FF F4 4A 86 67 44       *.R...o.....J.gD
002E00: BA AE FF FC 6C 04 2D 45 FF FC 72 00 12 2E FE F4       ....l.-E..r.....
002E10: 20 01 D0 85 B7 C0 6C 0A 70 00 10 2E FE F4 26 40        .....l.p.....&@
002E20: D7 C5 24 06 60 12 52 8C 22 42 D3 C5 93 C6 41 EE       ..$.`.R."B....A.
002E30: FE F4 12 B0 28 00 52 82 70 00 10 2E FE F4 22 40       ....(.R.p....."@
002E40: B3 C2 62 E2 4A AE FF F8 57 C0 44 00 48 80 48 C0       ..b.J...W.D.H.H.
002E50: 2D 40 FF F8 0C 03 00 37 6D 00 FE 40 0C 03 00 39       -@.....7m..@...9
002E60: 6E 00 FE 38 2F 0B 2F 2E FF FC 2F 05 48 79 00 01       n..8/./.../.Hy..
002E70: 74 C4 4E BA F3 92 4F EF 00 10 70 00 4C EE 1C 7C       t.N...O...p.L..|
002E80: FE D4 4E 5E 4E 75 70 01 B0 B9 00 01 75 24 66 04       ..N^Nup.....u$f.
002E90: 4E BA FA 64 70 00 4E 75 4E 56 FF F8 48 E7 30 30       N..dp.NuNV..H.00
002EA0: 20 2E 00 08 26 7C 00 00 22 06 23 C0 00 01 54 46        ...&|..".#...TF
002EB0: 2F 39 00 01 54 46 4E B9 00 00 17 BE 4E BA F5 F2       /9..TFN.....N...
002EC0: 10 00 58 8F 67 06 42 B9 00 01 75 24 48 78 00 08       ..X.g.B...u$Hx..
002ED0: 48 6E FF F8 4E BA F6 00 4E BA F5 D6 24 39 00 01       Hn..N...N...$9..
002EE0: 76 44 50 8F 60 38 24 42 0C 92 BA FB AF 11 66 2A       vDP.`8$B......f*
002EF0: 48 6E FF F8 48 6A 00 08 4E B9 00 00 17 E8 50 8F       Hn..Hj..N.....P.
002F00: 4A 80 67 16 20 6A 00 04 4E 90 20 00 67 0A 48 79       J.g. j..N. .g.Hy
002F10: 00 01 74 EC 4E 93 58 8F 60 66 70 10 D4 80 0C 82       ..t.N.X.`fp.....
002F20: 00 01 76 34 65 C0 48 6E FF F8 48 79 00 01 74 FA       ..v4e.Hn..Hy..t.
002F30: 4E 93 24 39 00 01 76 44 50 8F 76 00 60 30 24 42       N.$9..vDP.v.`0$B
002F40: 0C 92 BA FB AF 11 66 22 20 03 52 83 72 07 C0 81       ......f" .R.r...
002F50: 66 0A 48 79 00 01 75 10 4E 93 58 8F 48 6A 00 08       f.Hy..u.N.X.Hj..
002F60: 48 79 00 01 75 16 4E 93 50 8F 70 10 D4 80 0C 82       Hy..u.N.P.p.....
002F70: 00 01 76 34 65 C8 48 79 00 01 75 1C 4E 93 58 8F       ..v4e.Hy..u.N.X.
002F80: 4C EE 0C 0C FF E8 4E 5E 4E 75 2F 02 74 00 20 02       L.....N^Nu/.t. .
002F90: 52 82 E9 80 22 00 E5 80 D0 81 20 7C 00 01 54 4A       R..."..... |..TJ
002FA0: 42 30 08 00 70 0A B0 82 6E E4 48 78 00 4B 48 79       B0..p...n.Hx.KHy
002FB0: 00 01 53 F6 48 79 00 01 75 1E 4E BA F5 EA 48 79       ..S.Hy..u.N...Hy
002FC0: 00 01 53 F6 4E BA FE D2 4F EF 00 10 60 DC 4E 73       ..S.N...O...`.Ns
002FD0: 2F 02 24 01 6C 02 44 82 22 00 70 00 4A 81 6C 04       /.$.l.D.".p.J.l.
002FE0: 44 81 46 80 20 40 0C 82 00 00 FF FF 62 18 32 41       D.F. @......b.2A
002FF0: 42 41 48 41 82 C2 20 01 48 41 30 09 80 C2 32 00       BAHA.. .HA0...2.
003000: 42 40 48 40 60 1E 20 01 42 40 48 40 48 41 42 41       B@H@`. .B@H@HABA
003010: 22 42 74 0F D2 81 D1 80 B3 C0 62 04 90 89 52 41       "Bt.......b...RA
003020: 51 CA FF F2 34 08 67 02 44 80 24 1F 4E 75 2F 02       Q...4.g.D.$.Nu/.
003030: 20 40 70 00 24 01 6C 04 44 82 46 80 22 08 6C 04        @p.$.l.D.F.".l.
003040: 44 81 46 80 20 40 0C 82 00 00 FF FF 62 18 32 41       D.F. @......b.2A
003050: 42 41 48 41 82 C2 20 01 48 41 30 09 80 C2 32 00       BAHA.. .HA0...2.
003060: 42 40 48 40 60 1E 20 01 42 40 48 40 48 41 42 41       B@H@`. .B@H@HABA
003070: 22 42 74 0F D2 81 D1 80 B3 C0 62 04 90 89 52 41       "Bt.......b...RA
003080: 51 CA FF F2 24 08 67 02 44 81 20 01 24 1F 4E 75       Q...$.g.D. .$.Nu
003090: 22 42 24 00 C4 C1 20 42 24 00 48 42 4A 42 67 02       "B$... B$.HBJBg.
0030A0: C4 C1 48 41 4A 41 67 04 C0 C1 60 02 42 40 D0 82       ..HAJAg...`.B@..
0030B0: 48 40 42 40 D1 C0 20 08 24 09 4E                      H@B@.. .$.N

0030BC: 4E56 0000           link A6, #$0
0030C0: 2F3C 0000 0648      move.l  #$648, -(A7)
0030C6: 2F3C 0000 F000      move.l  #$f000, -(A7)
0030CC: 2F3C 0001 7000      move.l  #$17000, -(A7)
0030D2: 4EBA 0006           jsr  sub_0x0030DA  {0030DA}
0030D6: 4E5E                unlk  A6
0030D8: 4E75                rts
0030DA: 206F 0004           movea.l  $4(A7), A0
0030DE: 226F 0008           movea.l  $8(A7), A1
0030E2: 222F 000C           move.l  $C(A7), D1
0030E6: 2008                move.l  A0, D0
0030E8: 6002                bra.s  *j_0x0030EC  {0030EC}
0030EA: 10D9                move.b  (A1)+, (A0)+
0030EC: 51C9 FFFC           dbra  D1, *cc_0x0030EA  {0030EA}
0030F0: 4E75                rts
0030F2: 207C 0000 0000      movea.l  #$0, A0
0030F8: 6006                bra.s  *j_0x003100  {003100}
0030FA: 207C 0000 0001      movea.l  #$1, A0
003100: 2F02                move.l  D2, -(A7)
003102: 2401                move.l  D1, D2
003104: 2200                move.l  D0, D1
003106: 0C82 0000 FFFF      cmpi.l  #$ffff, D2
00310C: 6218                bhi.s  *cc_0x003126  {003126}
00310E: 3241                movea.w  D1, A1
003110: 4241                clr.w  D1
003112: 4841                swap  D1
003114: 82C2                divu  D2, D1
003116: 2001                move.l  D1, D0
003118: 4841                swap  D1
00311A: 3009                move.w  A1, D0
00311C: 80C2                divu  D2, D0
00311E: 3200                move.w  D0, D1
003120: 4240                clr.w  D0
003122: 4840                swap  D0
003124: 601E                bra.s  *j_0x003144  {003144}
003126: 2001                move.l  D1, D0
003128: 4240                clr.w  D0
00312A: 4840                swap  D0
00312C: 4841                swap  D1
00312E: 4241                clr.w  D1
003130: 2242                movea.l  D2, A1
003132: 740F                moveq  #$F, D2
003134: D281                add.l  D1, D1
003136: D180                addx.l  D0, D0
003138: B3C0                cmpa.l  D0, A1
00313A: 6204                bhi.s  *cc_0x003140  {003140}
00313C: 9089                sub.l  A1, D0
00313E: 5241                addq.w  #1, D1
003140: 51CA FFF2           dbra  D2, *cc_0x003134  {003134}
003144: B1FC 0000 0000      cmpa.l  #$0, A0
00314A: 6702                beq.s  *cc_0x00314E  {00314E}
00314C: 2001                move.l  D1, D0
00314E: 241F                move.l  (A7)+, D2
003150: 4E75                rts

         0  1  2  3  4  5  6  7  8  9  A  B  C  D  E  F
003150:       FF FF FF FF FF FF FF FF FF FF FF FF FF FF         ..............
003160: FF FF FF FF FF FF FF FF FF FF FF FF FF FF FF FF       ................
003170: FF FF FF FF FF FF FF FF FF FF FF FF FF FF FF FF       ................
003180: FF FF FF FF FF FF FF FF FF FF FF FF FF FF FF FF       ................
003190: FF FF FF FF FF FF FF FF FF FF FF FF FF FF FF FF       ................
0031A0: FF FF FF FF FF FF FF FF FF FF FF FF FF FF FF FF       ................
0031B0: FF FF FF FF FF FF FF FF FF FF FF FF FF FF FF FF       ................
0031C0: FF FF FF FF FF FF FF FF FF FF FF FF FF FF FF FF       ................
0031D0: FF FF FF FF FF FF FF FF FF FF FF FF FF FF FF FF       ................
0031E0: FF FF FF FF FF FF FF FF FF FF FF FF FF FF FF FF       ................
0031F0: FF FF FF FF FF FF FF FF FF FF FF FF FF FF FF FF       ................
003200: FF FF FF FF FF FF FF FF FF FF FF FF FF FF FF FF       ................
003210: FF FF FF FF FF FF FF FF FF FF FF FF FF FF FF FF       ................
003220: FF FF FF FF FF FF FF FF FF FF FF FF FF FF FF FF       ................
003230: FF FF FF FF FF FF FF FF FF FF FF FF FF FF FF FF       ................
003240: FF FF FF FF FF FF FF FF FF FF FF FF FF FF FF FF       ................
003250: FF FF FF FF FF FF FF FF FF FF FF FF FF FF FF FF       ................
003260: FF FF FF FF FF FF FF FF FF FF FF FF FF FF FF FF       ................
003270: FF FF FF FF FF FF FF FF FF FF FF FF FF FF FF FF       ................
003280: FF FF FF FF FF FF FF FF FF FF FF FF FF FF FF FF       ................
003290: FF FF FF FF FF FF FF FF FF FF FF FF FF FF FF FF       ................
0032A0: FF FF FF FF FF FF FF FF FF FF FF FF FF FF FF FF       ................
0032B0: FF FF FF FF FF FF FF FF FF FF FF FF FF FF FF FF       ................
0032C0: FF FF FF FF FF FF FF FF FF FF FF FF FF FF FF FF       ................
0032D0: FF FF FF FF FF FF FF FF FF FF FF FF FF FF FF FF       ................
0032E0: FF FF FF FF FF FF FF FF FF FF FF FF FF FF FF FF       ................
0032F0: FF FF FF FF FF FF FF FF FF FF FF FF FF FF FF FF       ................
003300: FF FF FF FF FF FF FF FF FF FF FF FF FF FF FF FF       ................
003310: FF FF FF FF FF FF FF FF FF FF FF FF FF FF FF FF       ................
003320: FF FF FF FF FF FF FF FF FF FF FF FF FF FF FF FF       ................
003330: FF FF FF FF FF FF FF FF FF FF FF FF FF FF FF FF       ................
003340: FF FF FF FF FF FF FF FF FF FF FF FF FF FF FF FF       ................
003350: FF FF FF FF FF FF FF FF FF FF FF FF FF FF FF FF       ................
003360: FF FF FF FF FF FF FF FF FF FF FF FF FF FF FF FF       ................
003370: FF FF FF FF FF FF FF FF FF FF FF FF FF FF FF FF       ................
003380: FF FF FF FF FF FF FF FF FF FF FF FF FF FF FF FF       ................
003390: FF FF FF FF FF FF FF FF FF FF FF FF FF FF FF FF       ................
0033A0: FF FF FF FF FF FF FF FF FF FF FF FF FF FF FF FF       ................
0033B0: FF FF FF FF FF FF FF FF FF FF FF FF FF FF FF FF       ................
0033C0: FF FF FF FF FF FF FF FF FF FF FF FF FF FF FF FF       ................
0033D0: FF FF FF FF FF FF FF FF FF FF FF FF FF FF FF FF       ................
0033E0: FF FF FF FF FF FF FF FF FF FF FF FF FF FF FF FF       ................
0033F0: FF FF FF FF FF FF FF FF FF FF FF FF FF FF FF FF       ................
003400: FF FF FF FF FF FF FF FF FF FF FF FF FF FF FF FF       ................
003410: FF FF FF FF FF FF FF FF FF FF FF FF FF FF FF FF       ................
003420: FF FF FF FF FF FF FF FF FF FF FF FF FF FF FF FF       ................
003430: FF FF FF FF FF FF FF FF FF FF FF FF FF FF FF FF       ................
003440: FF FF FF FF FF FF FF FF FF FF FF FF FF FF FF FF       ................
003450: FF FF FF FF FF FF FF FF FF FF FF FF FF FF FF FF       ................
003460: FF FF FF FF FF FF FF FF FF FF FF FF FF FF FF FF       ................
003470: FF FF FF FF FF FF FF FF FF FF FF FF FF FF FF FF       ................
003480: FF FF FF FF FF FF FF FF FF FF FF FF FF FF FF FF       ................
003490: FF FF FF FF FF FF FF FF FF FF FF FF FF FF FF FF       ................
0034A0: FF FF FF FF FF FF FF FF FF FF FF FF FF FF FF FF       ................
0034B0: FF FF FF FF FF FF FF FF FF FF FF FF FF FF FF FF       ................
0034C0: FF FF FF FF FF FF FF FF FF FF FF FF FF FF FF FF       ................
0034D0: FF FF FF FF FF FF FF FF FF FF FF FF FF FF FF FF       ................
0034E0: FF FF FF FF FF FF FF FF FF FF FF FF FF FF FF FF       ................
0034F0: FF FF FF FF FF FF FF FF FF FF FF FF FF FF FF FF       ................
003500: FF FF FF FF FF FF FF FF FF FF FF FF FF FF FF FF       ................
003510: FF FF FF FF FF FF FF FF FF FF FF FF FF FF FF FF       ................
003520: FF FF FF FF FF FF FF FF FF FF FF FF FF FF FF FF       ................
003530: FF FF FF FF FF FF FF FF FF FF FF FF FF FF FF FF       ................
003540: FF FF FF FF FF FF FF FF FF FF FF FF FF FF FF FF       ................
003550: FF FF FF FF FF FF FF FF FF FF FF FF FF FF FF FF       ................
003560: FF FF FF FF FF FF FF FF FF FF FF FF FF FF FF FF       ................
003570: FF FF FF FF FF FF FF FF FF FF FF FF FF FF FF FF       ................
003580: FF FF FF FF FF FF FF FF FF FF FF FF FF FF FF FF       ................
003590: FF FF FF FF FF FF FF FF FF FF FF FF FF FF FF FF       ................
0035A0: FF FF FF FF FF FF FF FF FF FF FF FF FF FF FF FF       ................
0035B0: FF FF FF FF FF FF FF FF FF FF FF FF FF FF FF FF       ................
0035C0: FF FF FF FF FF FF FF FF FF FF FF FF FF FF FF FF       ................
0035D0: FF FF FF FF FF FF FF FF FF FF FF FF FF FF FF FF       ................
0035E0: FF FF FF FF FF FF FF FF FF FF FF FF FF FF FF FF       ................
0035F0: FF FF FF FF FF FF FF FF FF FF FF FF FF FF FF FF       ................
003600: FF FF FF FF FF FF FF FF FF FF FF FF FF FF FF FF       ................
003610: FF FF FF FF FF FF FF FF FF FF FF FF FF FF FF FF       ................
003620: FF FF FF FF FF FF FF FF FF FF FF FF FF FF FF FF       ................
003630: FF FF FF FF FF FF FF FF FF FF FF FF FF FF FF FF       ................
003640: FF FF FF FF FF FF FF FF FF FF FF FF FF FF FF FF       ................
003650: FF FF FF FF FF FF FF FF FF FF FF FF FF FF FF FF       ................
003660: FF FF FF FF FF FF FF FF FF FF FF FF FF FF FF FF       ................
003670: FF FF FF FF FF FF FF FF FF FF FF FF FF FF FF FF       ................
003680: FF FF FF FF FF FF FF FF FF FF FF FF FF FF FF FF       ................
003690: FF FF FF FF FF FF FF FF FF FF FF FF FF FF FF FF       ................
0036A0: FF FF FF FF FF FF FF FF FF FF FF FF FF FF FF FF       ................
0036B0: FF FF FF FF FF FF FF FF FF FF FF FF FF FF FF FF       ................
0036C0: FF FF FF FF FF FF FF FF FF FF FF FF FF FF FF FF       ................
0036D0: FF FF FF FF FF FF FF FF FF FF FF FF FF FF FF FF       ................
0036E0: FF FF FF FF FF FF FF FF FF FF FF FF FF FF FF FF       ................
0036F0: FF FF FF FF FF FF FF FF FF FF FF FF FF FF FF FF       ................
003700: FF FF FF FF FF FF FF FF FF FF FF FF FF FF FF FF       ................
003710: FF FF FF FF FF FF FF FF FF FF FF FF FF FF FF FF       ................
003720: FF FF FF FF FF FF FF FF FF FF FF FF FF FF FF FF       ................
003730: FF FF FF FF FF FF FF FF FF FF FF FF FF FF FF FF       ................
003740: FF FF FF FF FF FF FF FF FF FF FF FF FF FF FF FF       ................
003750: FF FF FF FF FF FF FF FF FF FF FF FF FF FF FF FF       ................
003760: FF FF FF FF FF FF FF FF FF FF FF FF FF FF FF FF       ................
003770: FF FF FF FF FF FF FF FF FF FF FF FF FF FF FF FF       ................
003780: FF FF FF FF FF FF FF FF FF FF FF FF FF FF FF FF       ................
003790: FF FF FF FF FF FF FF FF FF FF FF FF FF FF FF FF       ................
0037A0: FF FF FF FF FF FF FF FF FF FF FF FF FF FF FF FF       ................
0037B0: FF FF FF FF FF FF FF FF FF FF FF FF FF FF FF FF       ................
0037C0: FF FF FF FF FF FF FF FF FF FF FF FF FF FF FF FF       ................
0037D0: FF FF FF FF FF FF FF FF FF FF FF FF FF FF FF FF       ................
0037E0: FF FF FF FF FF FF FF FF FF FF FF FF FF FF FF FF       ................
0037F0: FF FF FF FF FF FF FF FF FF FF FF FF FF FF FF FF       ................
003800: FF FF FF FF FF FF FF FF FF FF FF FF FF FF FF FF       ................
003810: FF FF FF FF FF FF FF FF FF FF FF FF FF FF FF FF       ................
003820: FF FF FF FF FF FF FF FF FF FF FF FF FF FF FF FF       ................
003830: FF FF FF FF FF FF FF FF FF FF FF FF FF FF FF FF       ................
003840: FF FF FF FF FF FF FF FF FF FF FF FF FF FF FF FF       ................
003850: FF FF FF FF FF FF FF FF FF FF FF FF FF FF FF FF       ................
003860: FF FF FF FF FF FF FF FF FF FF FF FF FF FF FF FF       ................
003870: FF FF FF FF FF FF FF FF FF FF FF FF FF FF FF FF       ................
003880: FF FF FF FF FF FF FF FF FF FF FF FF FF FF FF FF       ................
003890: FF FF FF FF FF FF FF FF FF FF FF FF FF FF FF FF       ................
0038A0: FF FF FF FF FF FF FF FF FF FF FF FF FF FF FF FF       ................
0038B0: FF FF FF FF FF FF FF FF FF FF FF FF FF FF FF FF       ................
0038C0: FF FF FF FF FF FF FF FF FF FF FF FF FF FF FF FF       ................
0038D0: FF FF FF FF FF FF FF FF FF FF FF FF FF FF FF FF       ................
0038E0: FF FF FF FF FF FF FF FF FF FF FF FF FF FF FF FF       ................
0038F0: FF FF FF FF FF FF FF FF FF FF FF FF FF FF FF FF       ................
003900: FF FF FF FF FF FF FF FF FF FF FF FF FF FF FF FF       ................
003910: FF FF FF FF FF FF FF FF FF FF FF FF FF FF FF FF       ................
003920: FF FF FF FF FF FF FF FF FF FF FF FF FF FF FF FF       ................
003930: FF FF FF FF FF FF FF FF FF FF FF FF FF FF FF FF       ................
003940: FF FF FF FF FF FF FF FF FF FF FF FF FF FF FF FF       ................
003950: FF FF FF FF FF FF FF FF FF FF FF FF FF FF FF FF       ................
003960: FF FF FF FF FF FF FF FF FF FF FF FF FF FF FF FF       ................
003970: FF FF FF FF FF FF FF FF FF FF FF FF FF FF FF FF       ................
003980: FF FF FF FF FF FF FF FF FF FF FF FF FF FF FF FF       ................
003990: FF FF FF FF FF FF FF FF FF FF FF FF FF FF FF FF       ................
0039A0: FF FF FF FF FF FF FF FF FF FF FF FF FF FF FF FF       ................
0039B0: FF FF FF FF FF FF FF FF FF FF FF FF FF FF FF FF       ................
0039C0: FF FF FF FF FF FF FF FF FF FF FF FF FF FF FF FF       ................
0039D0: FF FF FF FF FF FF FF FF FF FF FF FF FF FF FF FF       ................
0039E0: FF FF FF FF FF FF FF FF FF FF FF FF FF FF FF FF       ................
0039F0: FF FF FF FF FF FF FF FF FF FF FF FF FF FF FF FF       ................
003A00: FF FF FF FF FF FF FF FF FF FF FF FF FF FF FF FF       ................
003A10: FF FF FF FF FF FF FF FF FF FF FF FF FF FF FF FF       ................
003A20: FF FF FF FF FF FF FF FF FF FF FF FF FF FF FF FF       ................
003A30: FF FF FF FF FF FF FF FF FF FF FF FF FF FF FF FF       ................
003A40: FF FF FF FF FF FF FF FF FF FF FF FF FF FF FF FF       ................
003A50: FF FF FF FF FF FF FF FF FF FF FF FF FF FF FF FF       ................
003A60: FF FF FF FF FF FF FF FF FF FF FF FF FF FF FF FF       ................
003A70: FF FF FF FF FF FF FF FF FF FF FF FF FF FF FF FF       ................
003A80: FF FF FF FF FF FF FF FF FF FF FF FF FF FF FF FF       ................
003A90: FF FF FF FF FF FF FF FF FF FF FF FF FF FF FF FF       ................
003AA0: FF FF FF FF FF FF FF FF FF FF FF FF FF FF FF FF       ................
003AB0: FF FF FF FF FF FF FF FF FF FF FF FF FF FF FF FF       ................
003AC0: FF FF FF FF FF FF FF FF FF FF FF FF FF FF FF FF       ................
003AD0: FF FF FF FF FF FF FF FF FF FF FF FF FF FF FF FF       ................
003AE0: FF FF FF FF FF FF FF FF FF FF FF FF FF FF FF FF       ................
003AF0: FF FF FF FF FF FF FF FF FF FF FF FF FF FF FF FF       ................
003B00: FF FF FF FF FF FF FF FF FF FF FF FF FF FF FF FF       ................
003B10: FF FF FF FF FF FF FF FF FF FF FF FF FF FF FF FF       ................
003B20: FF FF FF FF FF FF FF FF FF FF FF FF FF FF FF FF       ................
003B30: FF FF FF FF FF FF FF FF FF FF FF FF FF FF FF FF       ................
003B40: FF FF FF FF FF FF FF FF FF FF FF FF FF FF FF FF       ................
003B50: FF FF FF FF FF FF FF FF FF FF FF FF FF FF FF FF       ................
003B60: FF FF FF FF FF FF FF FF FF FF FF FF FF FF FF FF       ................
003B70: FF FF FF FF FF FF FF FF FF FF FF FF FF FF FF FF       ................
003B80: FF FF FF FF FF FF FF FF FF FF FF FF FF FF FF FF       ................
003B90: FF FF FF FF FF FF FF FF FF FF FF FF FF FF FF FF       ................
003BA0: FF FF FF FF FF FF FF FF FF FF FF FF FF FF FF FF       ................
003BB0: FF FF FF FF FF FF FF FF FF FF FF FF FF FF FF FF       ................
003BC0: FF FF FF FF FF FF FF FF FF FF FF FF FF FF FF FF       ................
003BD0: FF FF FF FF FF FF FF FF FF FF FF FF FF FF FF FF       ................
003BE0: FF FF FF FF FF FF FF FF FF FF FF FF FF FF FF FF       ................
003BF0: FF FF FF FF FF FF FF FF FF FF FF FF FF FF FF FF       ................
003C00: FF FF FF FF FF FF FF FF FF FF FF FF FF FF FF FF       ................
003C10: FF FF FF FF FF FF FF FF FF FF FF FF FF FF FF FF       ................
003C20: FF FF FF FF FF FF FF FF FF FF FF FF FF FF FF FF       ................
003C30: FF FF FF FF FF FF FF FF FF FF FF FF FF FF FF FF       ................
003C40: FF FF FF FF FF FF FF FF FF FF FF FF FF FF FF FF       ................
003C50: FF FF FF FF FF FF FF FF FF FF FF FF FF FF FF FF       ................
003C60: FF FF FF FF FF FF FF FF FF FF FF FF FF FF FF FF       ................
003C70: FF FF FF FF FF FF FF FF FF FF FF FF FF FF FF FF       ................
003C80: FF FF FF FF FF FF FF FF FF FF FF FF FF FF FF FF       ................
003C90: FF FF FF FF FF FF FF FF FF FF FF FF FF FF FF FF       ................
003CA0: FF FF FF FF FF FF FF FF FF FF FF FF FF FF FF FF       ................
003CB0: FF FF FF FF FF FF FF FF FF FF FF FF FF FF FF FF       ................
003CC0: FF FF FF FF FF FF FF FF FF FF FF FF FF FF FF FF       ................
003CD0: FF FF FF FF FF FF FF FF FF FF FF FF FF FF FF FF       ................
003CE0: FF FF FF FF FF FF FF FF FF FF FF FF FF FF FF FF       ................
003CF0: FF FF FF FF FF FF FF FF FF FF FF FF FF FF FF FF       ................
003D00: FF FF FF FF FF FF FF FF FF FF FF FF FF FF FF FF       ................
003D10: FF FF FF FF FF FF FF FF FF FF FF FF FF FF FF FF       ................
003D20: FF FF FF FF FF FF FF FF FF FF FF FF FF FF FF FF       ................
003D30: FF FF FF FF FF FF FF FF FF FF FF FF FF FF FF FF       ................
003D40: FF FF FF FF FF FF FF FF FF FF FF FF FF FF FF FF       ................
003D50: FF FF FF FF FF FF FF FF FF FF FF FF FF FF FF FF       ................
003D60: FF FF FF FF FF FF FF FF FF FF FF FF FF FF FF FF       ................
003D70: FF FF FF FF FF FF FF FF FF FF FF FF FF FF FF FF       ................
003D80: FF FF FF FF FF FF FF FF FF FF FF FF FF FF FF FF       ................
003D90: FF FF FF FF FF FF FF FF FF FF FF FF FF FF FF FF       ................
003DA0: FF FF FF FF FF FF FF FF FF FF FF FF FF FF FF FF       ................
003DB0: FF FF FF FF FF FF FF FF FF FF FF FF FF FF FF FF       ................
003DC0: FF FF FF FF FF FF FF FF FF FF FF FF FF FF FF FF       ................
003DD0: FF FF FF FF FF FF FF FF FF FF FF FF FF FF FF FF       ................
003DE0: FF FF FF FF FF FF FF FF FF FF FF FF FF FF FF FF       ................
003DF0: FF FF FF FF FF FF FF FF FF FF FF FF FF FF FF FF       ................
003E00: FF FF FF FF FF FF FF FF FF FF FF FF FF FF FF FF       ................
003E10: FF FF FF FF FF FF FF FF FF FF FF FF FF FF FF FF       ................
003E20: FF FF FF FF FF FF FF FF FF FF FF FF FF FF FF FF       ................
003E30: FF FF FF FF FF FF FF FF FF FF FF FF FF FF FF FF       ................
003E40: FF FF FF FF FF FF FF FF FF FF FF FF FF FF FF FF       ................
003E50: FF FF FF FF FF FF FF FF FF FF FF FF FF FF FF FF       ................
003E60: FF FF FF FF FF FF FF FF FF FF FF FF FF FF FF FF       ................
003E70: FF FF FF FF FF FF FF FF FF FF FF FF FF FF FF FF       ................
003E80: FF FF FF FF FF FF FF FF FF FF FF FF FF FF FF FF       ................
003E90: FF FF FF FF FF FF FF FF FF FF FF FF FF FF FF FF       ................
003EA0: FF FF FF FF FF FF FF FF FF FF FF FF FF FF FF FF       ................
003EB0: FF FF FF FF FF FF FF FF FF FF FF FF FF FF FF FF       ................
003EC0: FF FF FF FF FF FF FF FF FF FF FF FF FF FF FF FF       ................
003ED0: FF FF FF FF FF FF FF FF FF FF FF FF FF FF FF FF       ................
003EE0: FF FF FF FF FF FF FF FF FF FF FF FF FF FF FF FF       ................
003EF0: FF FF FF FF FF FF FF FF FF FF FF FF FF FF FF FF       ................
003F00: FF FF FF FF FF FF FF FF FF FF FF FF FF FF FF FF       ................
003F10: FF FF FF FF FF FF FF FF FF FF FF FF FF FF FF FF       ................
003F20: FF FF FF FF FF FF FF FF FF FF FF FF FF FF FF FF       ................
003F30: FF FF FF FF FF FF FF FF FF FF FF FF FF FF FF FF       ................
003F40: FF FF FF FF FF FF FF FF FF FF FF FF FF FF FF FF       ................
003F50: FF FF FF FF FF FF FF FF FF FF FF FF FF FF FF FF       ................
003F60: FF FF FF FF FF FF FF FF FF FF FF FF FF FF FF FF       ................
003F70: FF FF FF FF FF FF FF FF FF FF FF FF FF FF FF FF       ................
003F80: FF FF FF FF FF FF FF FF FF FF FF FF FF FF FF FF       ................
003F90: FF FF FF FF FF FF FF FF FF FF FF FF FF FF FF FF       ................
003FA0: FF FF FF FF FF FF FF FF FF FF FF FF FF FF FF FF       ................
003FB0: FF FF FF FF FF FF FF FF FF FF FF FF FF FF FF FF       ................
003FC0: FF FF FF FF FF FF FF FF FF FF FF FF FF FF FF FF       ................
003FD0: FF FF FF FF FF FF FF FF FF FF FF FF FF FF FF FF       ................
003FE0: FF FF FF FF FF FF FF FF FF FF FF FF FF FF FF FF       ................
003FF0: FF FF FF FF FF FF FF FF FF FF FF FF FF FF FF FF       ................
004000: FF FF FF FF FF FF FF FF FF FF FF FF FF FF FF FF       ................
004010: FF FF FF FF FF FF FF FF FF FF FF FF FF FF FF FF       ................
004020: FF FF FF FF FF FF FF FF FF FF FF FF FF FF FF FF       ................
004030: FF FF FF FF FF FF FF FF FF FF FF FF FF FF FF FF       ................
004040: FF FF FF FF FF FF FF FF FF FF FF FF FF FF FF FF       ................
004050: FF FF FF FF FF FF FF FF FF FF FF FF FF FF FF FF       ................
004060: FF FF FF FF FF FF FF FF FF FF FF FF FF FF FF FF       ................
004070: FF FF FF FF FF FF FF FF FF FF FF FF FF FF FF FF       ................
004080: FF FF FF FF FF FF FF FF FF FF FF FF FF FF FF FF       ................
004090: FF FF FF FF FF FF FF FF FF FF FF FF FF FF FF FF       ................
0040A0: FF FF FF FF FF FF FF FF FF FF FF FF FF FF FF FF       ................
0040B0: FF FF FF FF FF FF FF FF FF FF FF FF FF FF FF FF       ................
0040C0: FF FF FF FF FF FF FF FF FF FF FF FF FF FF FF FF       ................
0040D0: FF FF FF FF FF FF FF FF FF FF FF FF FF FF FF FF       ................
0040E0: FF FF FF FF FF FF FF FF FF FF FF FF FF FF FF FF       ................
0040F0: FF FF FF FF FF FF FF FF FF FF FF FF FF FF FF FF       ................
004100: FF FF FF FF FF FF FF FF FF FF FF FF FF FF FF FF       ................
004110: FF FF FF FF FF FF FF FF FF FF FF FF FF FF FF FF       ................
004120: FF FF FF FF FF FF FF FF FF FF FF FF FF FF FF FF       ................
004130: FF FF FF FF FF FF FF FF FF FF FF FF FF FF FF FF       ................
004140: FF FF FF FF FF FF FF FF FF FF FF FF FF FF FF FF       ................
004150: FF FF FF FF FF FF FF FF FF FF FF FF FF FF FF FF       ................
004160: FF FF FF FF FF FF FF FF FF FF FF FF FF FF FF FF       ................
004170: FF FF FF FF FF FF FF FF FF FF FF FF FF FF FF FF       ................
004180: FF FF FF FF FF FF FF FF FF FF FF FF FF FF FF FF       ................
004190: FF FF FF FF FF FF FF FF FF FF FF FF FF FF FF FF       ................
0041A0: FF FF FF FF FF FF FF FF FF FF FF FF FF FF FF FF       ................
0041B0: FF FF FF FF FF FF FF FF FF FF FF FF FF FF FF FF       ................
0041C0: FF FF FF FF FF FF FF FF FF FF FF FF FF FF FF FF       ................
0041D0: FF FF FF FF FF FF FF FF FF FF FF FF FF FF FF FF       ................
0041E0: FF FF FF FF FF FF FF FF FF FF FF FF FF FF FF FF       ................
0041F0: FF FF FF FF FF FF FF FF FF FF FF FF FF FF FF FF       ................
004200: FF FF FF FF FF FF FF FF FF FF FF FF FF FF FF FF       ................
004210: FF FF FF FF FF FF FF FF FF FF FF FF FF FF FF FF       ................
004220: FF FF FF FF FF FF FF FF FF FF FF FF FF FF FF FF       ................
004230: FF FF FF FF FF FF FF FF FF FF FF FF FF FF FF FF       ................
004240: FF FF FF FF FF FF FF FF FF FF FF FF FF FF FF FF       ................
004250: FF FF FF FF FF FF FF FF FF FF FF FF FF FF FF FF       ................
004260: FF FF FF FF FF FF FF FF FF FF FF FF FF FF FF FF       ................
004270: FF FF FF FF FF FF FF FF FF FF FF FF FF FF FF FF       ................
004280: FF FF FF FF FF FF FF FF FF FF FF FF FF FF FF FF       ................
004290: FF FF FF FF FF FF FF FF FF FF FF FF FF FF FF FF       ................
0042A0: FF FF FF FF FF FF FF FF FF FF FF FF FF FF FF FF       ................
0042B0: FF FF FF FF FF FF FF FF FF FF FF FF FF FF FF FF       ................
0042C0: FF FF FF FF FF FF FF FF FF FF FF FF FF FF FF FF       ................
0042D0: FF FF FF FF FF FF FF FF FF FF FF FF FF FF FF FF       ................
0042E0: FF FF FF FF FF FF FF FF FF FF FF FF FF FF FF FF       ................
0042F0: FF FF FF FF FF FF FF FF FF FF FF FF FF FF FF FF       ................
004300: FF FF FF FF FF FF FF FF FF FF FF FF FF FF FF FF       ................
004310: FF FF FF FF FF FF FF FF FF FF FF FF FF FF FF FF       ................
004320: FF FF FF FF FF FF FF FF FF FF FF FF FF FF FF FF       ................
004330: FF FF FF FF FF FF FF FF FF FF FF FF FF FF FF FF       ................
004340: FF FF FF FF FF FF FF FF FF FF FF FF FF FF FF FF       ................
004350: FF FF FF FF FF FF FF FF FF FF FF FF FF FF FF FF       ................
004360: FF FF FF FF FF FF FF FF FF FF FF FF FF FF FF FF       ................
004370: FF FF FF FF FF FF FF FF FF FF FF FF FF FF FF FF       ................
004380: FF FF FF FF FF FF FF FF FF FF FF FF FF FF FF FF       ................
004390: FF FF FF FF FF FF FF FF FF FF FF FF FF FF FF FF       ................
0043A0: FF FF FF FF FF FF FF FF FF FF FF FF FF FF FF FF       ................
0043B0: FF FF FF FF FF FF FF FF FF FF FF FF FF FF FF FF       ................
0043C0: FF FF FF FF FF FF FF FF FF FF FF FF FF FF FF FF       ................
0043D0: FF FF FF FF FF FF FF FF FF FF FF FF FF FF FF FF       ................
0043E0: FF FF FF FF FF FF FF FF FF FF FF FF FF FF FF FF       ................
0043F0: FF FF FF FF FF FF FF FF FF FF FF FF FF FF FF FF       ................
004400: FF FF FF FF FF FF FF FF FF FF FF FF FF FF FF FF       ................
004410: FF FF FF FF FF FF FF FF FF FF FF FF FF FF FF FF       ................
004420: FF FF FF FF FF FF FF FF FF FF FF FF FF FF FF FF       ................
004430: FF FF FF FF FF FF FF FF FF FF FF FF FF FF FF FF       ................
004440: FF FF FF FF FF FF FF FF FF FF FF FF FF FF FF FF       ................
004450: FF FF FF FF FF FF FF FF FF FF FF FF FF FF FF FF       ................
004460: FF FF FF FF FF FF FF FF FF FF FF FF FF FF FF FF       ................
004470: FF FF FF FF FF FF FF FF FF FF FF FF FF FF FF FF       ................
004480: FF FF FF FF FF FF FF FF FF FF FF FF FF FF FF FF       ................
004490: FF FF FF FF FF FF FF FF FF FF FF FF FF FF FF FF       ................
0044A0: FF FF FF FF FF FF FF FF FF FF FF FF FF FF FF FF       ................
0044B0: FF FF FF FF FF FF FF FF FF FF FF FF FF FF FF FF       ................
0044C0: FF FF FF FF FF FF FF FF FF FF FF FF FF FF FF FF       ................
0044D0: FF FF FF FF FF FF FF FF FF FF FF FF FF FF FF FF       ................
0044E0: FF FF FF FF FF FF FF FF FF FF FF FF FF FF FF FF       ................
0044F0: FF FF FF FF FF FF FF FF FF FF FF FF FF FF FF FF       ................
004500: FF FF FF FF FF FF FF FF FF FF FF FF FF FF FF FF       ................
004510: FF FF FF FF FF FF FF FF FF FF FF FF FF FF FF FF       ................
004520: FF FF FF FF FF FF FF FF FF FF FF FF FF FF FF FF       ................
004530: FF FF FF FF FF FF FF FF FF FF FF FF FF FF FF FF       ................
004540: FF FF FF FF FF FF FF FF FF FF FF FF FF FF FF FF       ................
004550: FF FF FF FF FF FF FF FF FF FF FF FF FF FF FF FF       ................
004560: FF FF FF FF FF FF FF FF FF FF FF FF FF FF FF FF       ................
004570: FF FF FF FF FF FF FF FF FF FF FF FF FF FF FF FF       ................
004580: FF FF FF FF FF FF FF FF FF FF FF FF FF FF FF FF       ................
004590: FF FF FF FF FF FF FF FF FF FF FF FF FF FF FF FF       ................
0045A0: FF FF FF FF FF FF FF FF FF FF FF FF FF FF FF FF       ................
0045B0: FF FF FF FF FF FF FF FF FF FF FF FF FF FF FF FF       ................
0045C0: FF FF FF FF FF FF FF FF FF FF FF FF FF FF FF FF       ................
0045D0: FF FF FF FF FF FF FF FF FF FF FF FF FF FF FF FF       ................
0045E0: FF FF FF FF FF FF FF FF FF FF FF FF FF FF FF FF       ................
0045F0: FF FF FF FF FF FF FF FF FF FF FF FF FF FF FF FF       ................
004600: FF FF FF FF FF FF FF FF FF FF FF FF FF FF FF FF       ................
004610: FF FF FF FF FF FF FF FF FF FF FF FF FF FF FF FF       ................
004620: FF FF FF FF FF FF FF FF FF FF FF FF FF FF FF FF       ................
004630: FF FF FF FF FF FF FF FF FF FF FF FF FF FF FF FF       ................
004640: FF FF FF FF FF FF FF FF FF FF FF FF FF FF FF FF       ................
004650: FF FF FF FF FF FF FF FF FF FF FF FF FF FF FF FF       ................
004660: FF FF FF FF FF FF FF FF FF FF FF FF FF FF FF FF       ................
004670: FF FF FF FF FF FF FF FF FF FF FF FF FF FF FF FF       ................
004680: FF FF FF FF FF FF FF FF FF FF FF FF FF FF FF FF       ................
004690: FF FF FF FF FF FF FF FF FF FF FF FF FF FF FF FF       ................
0046A0: FF FF FF FF FF FF FF FF FF FF FF FF FF FF FF FF       ................
0046B0: FF FF FF FF FF FF FF FF FF FF FF FF FF FF FF FF       ................
0046C0: FF FF FF FF FF FF FF FF FF FF FF FF FF FF FF FF       ................
0046D0: FF FF FF FF FF FF FF FF FF FF FF FF FF FF FF FF       ................
0046E0: FF FF FF FF FF FF FF FF FF FF FF FF FF FF FF FF       ................
0046F0: FF FF FF FF FF FF FF FF FF FF FF FF FF FF FF FF       ................
004700: FF FF FF FF FF FF FF FF FF FF FF FF FF FF FF FF       ................
004710: FF FF FF FF FF FF FF FF FF FF FF FF FF FF FF FF       ................
004720: FF FF FF FF FF FF FF FF FF FF FF FF FF FF FF FF       ................
004730: FF FF FF FF FF FF FF FF FF FF FF FF FF FF FF FF       ................
004740: FF FF FF FF FF FF FF FF FF FF FF FF FF FF FF FF       ................
004750: FF FF FF FF FF FF FF FF FF FF FF FF FF FF FF FF       ................
004760: FF FF FF FF FF FF FF FF FF FF FF FF FF FF FF FF       ................
004770: FF FF FF FF FF FF FF FF FF FF FF FF FF FF FF FF       ................
004780: FF FF FF FF FF FF FF FF FF FF FF FF FF FF FF FF       ................
004790: FF FF FF FF FF FF FF FF FF FF FF FF FF FF FF FF       ................
0047A0: FF FF FF FF FF FF FF FF FF FF FF FF FF FF FF FF       ................
0047B0: FF FF FF FF FF FF FF FF FF FF FF FF FF FF FF FF       ................
0047C0: FF FF FF FF FF FF FF FF FF FF FF FF FF FF FF FF       ................
0047D0: FF FF FF FF FF FF FF FF FF FF FF FF FF FF FF FF       ................
0047E0: FF FF FF FF FF FF FF FF FF FF FF FF FF FF FF FF       ................
0047F0: FF FF FF FF FF FF FF FF FF FF FF FF FF FF FF FF       ................
004800: FF FF FF FF FF FF FF FF FF FF FF FF FF FF FF FF       ................
004810: FF FF FF FF FF FF FF FF FF FF FF FF FF FF FF FF       ................
004820: FF FF FF FF FF FF FF FF FF FF FF FF FF FF FF FF       ................
004830: FF FF FF FF FF FF FF FF FF FF FF FF FF FF FF FF       ................
004840: FF FF FF FF FF FF FF FF FF FF FF FF FF FF FF FF       ................
004850: FF FF FF FF FF FF FF FF FF FF FF FF FF FF FF FF       ................
004860: FF FF FF FF FF FF FF FF FF FF FF FF FF FF FF FF       ................
004870: FF FF FF FF FF FF FF FF FF FF FF FF FF FF FF FF       ................
004880: FF FF FF FF FF FF FF FF FF FF FF FF FF FF FF FF       ................
004890: FF FF FF FF FF FF FF FF FF FF FF FF FF FF FF FF       ................
0048A0: FF FF FF FF FF FF FF FF FF FF FF FF FF FF FF FF       ................
0048B0: FF FF FF FF FF FF FF FF FF FF FF FF FF FF FF FF       ................
0048C0: FF FF FF FF FF FF FF FF FF FF FF FF FF FF FF FF       ................
0048D0: FF FF FF FF FF FF FF FF FF FF FF FF FF FF FF FF       ................
0048E0: FF FF FF FF FF FF FF FF FF FF FF FF FF FF FF FF       ................
0048F0: FF FF FF FF FF FF FF FF FF FF FF FF FF FF FF FF       ................
004900: FF FF FF FF FF FF FF FF FF FF FF FF FF FF FF FF       ................
004910: FF FF FF FF FF FF FF FF FF FF FF FF FF FF FF FF       ................
004920: FF FF FF FF FF FF FF FF FF FF FF FF FF FF FF FF       ................
004930: FF FF FF FF FF FF FF FF FF FF FF FF FF FF FF FF       ................
004940: FF FF FF FF FF FF FF FF FF FF FF FF FF FF FF FF       ................
004950: FF FF FF FF FF FF FF FF FF FF FF FF FF FF FF FF       ................
004960: FF FF FF FF FF FF FF FF FF FF FF FF FF FF FF FF       ................
004970: FF FF FF FF FF FF FF FF FF FF FF FF FF FF FF FF       ................
004980: FF FF FF FF FF FF FF FF FF FF FF FF FF FF FF FF       ................
004990: FF FF FF FF FF FF FF FF FF FF FF FF FF FF FF FF       ................
0049A0: FF FF FF FF FF FF FF FF FF FF FF FF FF FF FF FF       ................
0049B0: FF FF FF FF FF FF FF FF FF FF FF FF FF FF FF FF       ................
0049C0: FF FF FF FF FF FF FF FF FF FF FF FF FF FF FF FF       ................
0049D0: FF FF FF FF FF FF FF FF FF FF FF FF FF FF FF FF       ................
0049E0: FF FF FF FF FF FF FF FF FF FF FF FF FF FF FF FF       ................
0049F0: FF FF FF FF FF FF FF FF FF FF FF FF FF FF FF FF       ................
004A00: FF FF FF FF FF FF FF FF FF FF FF FF FF FF FF FF       ................
004A10: FF FF FF FF FF FF FF FF FF FF FF FF FF FF FF FF       ................
004A20: FF FF FF FF FF FF FF FF FF FF FF FF FF FF FF FF       ................
004A30: FF FF FF FF FF FF FF FF FF FF FF FF FF FF FF FF       ................
004A40: FF FF FF FF FF FF FF FF FF FF FF FF FF FF FF FF       ................
004A50: FF FF FF FF FF FF FF FF FF FF FF FF FF FF FF FF       ................
004A60: FF FF FF FF FF FF FF FF FF FF FF FF FF FF FF FF       ................
004A70: FF FF FF FF FF FF FF FF FF FF FF FF FF FF FF FF       ................
004A80: FF FF FF FF FF FF FF FF FF FF FF FF FF FF FF FF       ................
004A90: FF FF FF FF FF FF FF FF FF FF FF FF FF FF FF FF       ................
004AA0: FF FF FF FF FF FF FF FF FF FF FF FF FF FF FF FF       ................
004AB0: FF FF FF FF FF FF FF FF FF FF FF FF FF FF FF FF       ................
004AC0: FF FF FF FF FF FF FF FF FF FF FF FF FF FF FF FF       ................
004AD0: FF FF FF FF FF FF FF FF FF FF FF FF FF FF FF FF       ................
004AE0: FF FF FF FF FF FF FF FF FF FF FF FF FF FF FF FF       ................
004AF0: FF FF FF FF FF FF FF FF FF FF FF FF FF FF FF FF       ................
004B00: FF FF FF FF FF FF FF FF FF FF FF FF FF FF FF FF       ................
004B10: FF FF FF FF FF FF FF FF FF FF FF FF FF FF FF FF       ................
004B20: FF FF FF FF FF FF FF FF FF FF FF FF FF FF FF FF       ................
004B30: FF FF FF FF FF FF FF FF FF FF FF FF FF FF FF FF       ................
004B40: FF FF FF FF FF FF FF FF FF FF FF FF FF FF FF FF       ................
004B50: FF FF FF FF FF FF FF FF FF FF FF FF FF FF FF FF       ................
004B60: FF FF FF FF FF FF FF FF FF FF FF FF FF FF FF FF       ................
004B70: FF FF FF FF FF FF FF FF FF FF FF FF FF FF FF FF       ................
004B80: FF FF FF FF FF FF FF FF FF FF FF FF FF FF FF FF       ................
004B90: FF FF FF FF FF FF FF FF FF FF FF FF FF FF FF FF       ................
004BA0: FF FF FF FF FF FF FF FF FF FF FF FF FF FF FF FF       ................
004BB0: FF FF FF FF FF FF FF FF FF FF FF FF FF FF FF FF       ................
004BC0: FF FF FF FF FF FF FF FF FF FF FF FF FF FF FF FF       ................
004BD0: FF FF FF FF FF FF FF FF FF FF FF FF FF FF FF FF       ................
004BE0: FF FF FF FF FF FF FF FF FF FF FF FF FF FF FF FF       ................
004BF0: FF FF FF FF FF FF FF FF FF FF FF FF FF FF FF FF       ................
004C00: FF FF FF FF FF FF FF FF FF FF FF FF FF FF FF FF       ................
004C10: FF FF FF FF FF FF FF FF FF FF FF FF FF FF FF FF       ................
004C20: FF FF FF FF FF FF FF FF FF FF FF FF FF FF FF FF       ................
004C30: FF FF FF FF FF FF FF FF FF FF FF FF FF FF FF FF       ................
004C40: FF FF FF FF FF FF FF FF FF FF FF FF FF FF FF FF       ................
004C50: FF FF FF FF FF FF FF FF FF FF FF FF FF FF FF FF       ................
004C60: FF FF FF FF FF FF FF FF FF FF FF FF FF FF FF FF       ................
004C70: FF FF FF FF FF FF FF FF FF FF FF FF FF FF FF FF       ................
004C80: FF FF FF FF FF FF FF FF FF FF FF FF FF FF FF FF       ................
004C90: FF FF FF FF FF FF FF FF FF FF FF FF FF FF FF FF       ................
004CA0: FF FF FF FF FF FF FF FF FF FF FF FF FF FF FF FF       ................
004CB0: FF FF FF FF FF FF FF FF FF FF FF FF FF FF FF FF       ................
004CC0: FF FF FF FF FF FF FF FF FF FF FF FF FF FF FF FF       ................
004CD0: FF FF FF FF FF FF FF FF FF FF FF FF FF FF FF FF       ................
004CE0: FF FF FF FF FF FF FF FF FF FF FF FF FF FF FF FF       ................
004CF0: FF FF FF FF FF FF FF FF FF FF FF FF FF FF FF FF       ................
004D00: FF FF FF FF FF FF FF FF FF FF FF FF FF FF FF FF       ................
004D10: FF FF FF FF FF FF FF FF FF FF FF FF FF FF FF FF       ................
004D20: FF FF FF FF FF FF FF FF FF FF FF FF FF FF FF FF       ................
004D30: FF FF FF FF FF FF FF FF FF FF FF FF FF FF FF FF       ................
004D40: FF FF FF FF FF FF FF FF FF FF FF FF FF FF FF FF       ................
004D50: FF FF FF FF FF FF FF FF FF FF FF FF FF FF FF FF       ................
004D60: FF FF FF FF FF FF FF FF FF FF FF FF FF FF FF FF       ................
004D70: FF FF FF FF FF FF FF FF FF FF FF FF FF FF FF FF       ................
004D80: FF FF FF FF FF FF FF FF FF FF FF FF FF FF FF FF       ................
004D90: FF FF FF FF FF FF FF FF FF FF FF FF FF FF FF FF       ................
004DA0: FF FF FF FF FF FF FF FF FF FF FF FF FF FF FF FF       ................
004DB0: FF FF FF FF FF FF FF FF FF FF FF FF FF FF FF FF       ................
004DC0: FF FF FF FF FF FF FF FF FF FF FF FF FF FF FF FF       ................
004DD0: FF FF FF FF FF FF FF FF FF FF FF FF FF FF FF FF       ................
004DE0: FF FF FF FF FF FF FF FF FF FF FF FF FF FF FF FF       ................
004DF0: FF FF FF FF FF FF FF FF FF FF FF FF FF FF FF FF       ................
004E00: FF FF FF FF FF FF FF FF FF FF FF FF FF FF FF FF       ................
004E10: FF FF FF FF FF FF FF FF FF FF FF FF FF FF FF FF       ................
004E20: FF FF FF FF FF FF FF FF FF FF FF FF FF FF FF FF       ................
004E30: FF FF FF FF FF FF FF FF FF FF FF FF FF FF FF FF       ................
004E40: FF FF FF FF FF FF FF FF FF FF FF FF FF FF FF FF       ................
004E50: FF FF FF FF FF FF FF FF FF FF FF FF FF FF FF FF       ................
004E60: FF FF FF FF FF FF FF FF FF FF FF FF FF FF FF FF       ................
004E70: FF FF FF FF FF FF FF FF FF FF FF FF FF FF FF FF       ................
004E80: FF FF FF FF FF FF FF FF FF FF FF FF FF FF FF FF       ................
004E90: FF FF FF FF FF FF FF FF FF FF FF FF FF FF FF FF       ................
004EA0: FF FF FF FF FF FF FF FF FF FF FF FF FF FF FF FF       ................
004EB0: FF FF FF FF FF FF FF FF FF FF FF FF FF FF FF FF       ................
004EC0: FF FF FF FF FF FF FF FF FF FF FF FF FF FF FF FF       ................
004ED0: FF FF FF FF FF FF FF FF FF FF FF FF FF FF FF FF       ................
004EE0: FF FF FF FF FF FF FF FF FF FF FF FF FF FF FF FF       ................
004EF0: FF FF FF FF FF FF FF FF FF FF FF FF FF FF FF FF       ................
004F00: FF FF FF FF FF FF FF FF FF FF FF FF FF FF FF FF       ................
004F10: FF FF FF FF FF FF FF FF FF FF FF FF FF FF FF FF       ................
004F20: FF FF FF FF FF FF FF FF FF FF FF FF FF FF FF FF       ................
004F30: FF FF FF FF FF FF FF FF FF FF FF FF FF FF FF FF       ................
004F40: FF FF FF FF FF FF FF FF FF FF FF FF FF FF FF FF       ................
004F50: FF FF FF FF FF FF FF FF FF FF FF FF FF FF FF FF       ................
004F60: FF FF FF FF FF FF FF FF FF FF FF FF FF FF FF FF       ................
004F70: FF FF FF FF FF FF FF FF FF FF FF FF FF FF FF FF       ................
004F80: FF FF FF FF FF FF FF FF FF FF FF FF FF FF FF FF       ................
004F90: FF FF FF FF FF FF FF FF FF FF FF FF FF FF FF FF       ................
004FA0: FF FF FF FF FF FF FF FF FF FF FF FF FF FF FF FF       ................
004FB0: FF FF FF FF FF FF FF FF FF FF FF FF FF FF FF FF       ................
004FC0: FF FF FF FF FF FF FF FF FF FF FF FF FF FF FF FF       ................
004FD0: FF FF FF FF FF FF FF FF FF FF FF FF FF FF FF FF       ................
004FE0: FF FF FF FF FF FF FF FF FF FF FF FF FF FF FF FF       ................
004FF0: FF FF FF FF FF FF FF FF FF FF FF FF FF FF FF FF       ................
005000: FF FF FF FF FF FF FF FF FF FF FF FF FF FF FF FF       ................
005010: FF FF FF FF FF FF FF FF FF FF FF FF FF FF FF FF       ................
005020: FF FF FF FF FF FF FF FF FF FF FF FF FF FF FF FF       ................
005030: FF FF FF FF FF FF FF FF FF FF FF FF FF FF FF FF       ................
005040: FF FF FF FF FF FF FF FF FF FF FF FF FF FF FF FF       ................
005050: FF FF FF FF FF FF FF FF FF FF FF FF FF FF FF FF       ................
005060: FF FF FF FF FF FF FF FF FF FF FF FF FF FF FF FF       ................
005070: FF FF FF FF FF FF FF FF FF FF FF FF FF FF FF FF       ................
005080: FF FF FF FF FF FF FF FF FF FF FF FF FF FF FF FF       ................
005090: FF FF FF FF FF FF FF FF FF FF FF FF FF FF FF FF       ................
0050A0: FF FF FF FF FF FF FF FF FF FF FF FF FF FF FF FF       ................
0050B0: FF FF FF FF FF FF FF FF FF FF FF FF FF FF FF FF       ................
0050C0: FF FF FF FF FF FF FF FF FF FF FF FF FF FF FF FF       ................
0050D0: FF FF FF FF FF FF FF FF FF FF FF FF FF FF FF FF       ................
0050E0: FF FF FF FF FF FF FF FF FF FF FF FF FF FF FF FF       ................
0050F0: FF FF FF FF FF FF FF FF FF FF FF FF FF FF FF FF       ................
005100: FF FF FF FF FF FF FF FF FF FF FF FF FF FF FF FF       ................
005110: FF FF FF FF FF FF FF FF FF FF FF FF FF FF FF FF       ................
005120: FF FF FF FF FF FF FF FF FF FF FF FF FF FF FF FF       ................
005130: FF FF FF FF FF FF FF FF FF FF FF FF FF FF FF FF       ................
005140: FF FF FF FF FF FF FF FF FF FF FF FF FF FF FF FF       ................
005150: FF FF FF FF FF FF FF FF FF FF FF FF FF FF FF FF       ................
005160: FF FF FF FF FF FF FF FF FF FF FF FF FF FF FF FF       ................
005170: FF FF FF FF FF FF FF FF FF FF FF FF FF FF FF FF       ................
005180: FF FF FF FF FF FF FF FF FF FF FF FF FF FF FF FF       ................
005190: FF FF FF FF FF FF FF FF FF FF FF FF FF FF FF FF       ................
0051A0: FF FF FF FF FF FF FF FF FF FF FF FF FF FF FF FF       ................
0051B0: FF FF FF FF FF FF FF FF FF FF FF FF FF FF FF FF       ................
0051C0: FF FF FF FF FF FF FF FF FF FF FF FF FF FF FF FF       ................
0051D0: FF FF FF FF FF FF FF FF FF FF FF FF FF FF FF FF       ................
0051E0: FF FF FF FF FF FF FF FF FF FF FF FF FF FF FF FF       ................
0051F0: FF FF FF FF FF FF FF FF FF FF FF FF FF FF FF FF       ................
005200: FF FF FF FF FF FF FF FF FF FF FF FF FF FF FF FF       ................
005210: FF FF FF FF FF FF FF FF FF FF FF FF FF FF FF FF       ................
005220: FF FF FF FF FF FF FF FF FF FF FF FF FF FF FF FF       ................
005230: FF FF FF FF FF FF FF FF FF FF FF FF FF FF FF FF       ................
005240: FF FF FF FF FF FF FF FF FF FF FF FF FF FF FF FF       ................
005250: FF FF FF FF FF FF FF FF FF FF FF FF FF FF FF FF       ................
005260: FF FF FF FF FF FF FF FF FF FF FF FF FF FF FF FF       ................
005270: FF FF FF FF FF FF FF FF FF FF FF FF FF FF FF FF       ................
005280: FF FF FF FF FF FF FF FF FF FF FF FF FF FF FF FF       ................
005290: FF FF FF FF FF FF FF FF FF FF FF FF FF FF FF FF       ................
0052A0: FF FF FF FF FF FF FF FF FF FF FF FF FF FF FF FF       ................
0052B0: FF FF FF FF FF FF FF FF FF FF FF FF FF FF FF FF       ................
0052C0: FF FF FF FF FF FF FF FF FF FF FF FF FF FF FF FF       ................
0052D0: FF FF FF FF FF FF FF FF FF FF FF FF FF FF FF FF       ................
0052E0: FF FF FF FF FF FF FF FF FF FF FF FF FF FF FF FF       ................
0052F0: FF FF FF FF FF FF FF FF FF FF FF FF FF FF FF FF       ................
005300: FF FF FF FF FF FF FF FF FF FF FF FF FF FF FF FF       ................
005310: FF FF FF FF FF FF FF FF FF FF FF FF FF FF FF FF       ................
005320: FF FF FF FF FF FF FF FF FF FF FF FF FF FF FF FF       ................
005330: FF FF FF FF FF FF FF FF FF FF FF FF FF FF FF FF       ................
005340: FF FF FF FF FF FF FF FF FF FF FF FF FF FF FF FF       ................
005350: FF FF FF FF FF FF FF FF FF FF FF FF FF FF FF FF       ................
005360: FF FF FF FF FF FF FF FF FF FF FF FF FF FF FF FF       ................
005370: FF FF FF FF FF FF FF FF FF FF FF FF FF FF FF FF       ................
005380: FF FF FF FF FF FF FF FF FF FF FF FF FF FF FF FF       ................
005390: FF FF FF FF FF FF FF FF FF FF FF FF FF FF FF FF       ................
0053A0: FF FF FF FF FF FF FF FF FF FF FF FF FF FF FF FF       ................
0053B0: FF FF FF FF FF FF FF FF FF FF FF FF FF FF FF FF       ................
0053C0: FF FF FF FF FF FF FF FF FF FF FF FF FF FF FF FF       ................
0053D0: FF FF FF FF FF FF FF FF FF FF FF FF FF FF FF FF       ................
0053E0: FF FF FF FF FF FF FF FF FF FF FF FF FF FF FF FF       ................
0053F0: FF FF FF FF FF FF FF FF FF FF FF FF FF FF FF FF       ................
005400: FF FF FF FF FF FF FF FF FF FF FF FF FF FF FF FF       ................
005410: FF FF FF FF FF FF FF FF FF FF FF FF FF FF FF FF       ................
005420: FF FF FF FF FF FF FF FF FF FF FF FF FF FF FF FF       ................
005430: FF FF FF FF FF FF FF FF FF FF FF FF FF FF FF FF       ................
005440: FF FF FF FF FF FF FF FF FF FF FF FF FF FF FF FF       ................
005450: FF FF FF FF FF FF FF FF FF FF FF FF FF FF FF FF       ................
005460: FF FF FF FF FF FF FF FF FF FF FF FF FF FF FF FF       ................
005470: FF FF FF FF FF FF FF FF FF FF FF FF FF FF FF FF       ................
005480: FF FF FF FF FF FF FF FF FF FF FF FF FF FF FF FF       ................
005490: FF FF FF FF FF FF FF FF FF FF FF FF FF FF FF FF       ................
0054A0: FF FF FF FF FF FF FF FF FF FF FF FF FF FF FF FF       ................
0054B0: FF FF FF FF FF FF FF FF FF FF FF FF FF FF FF FF       ................
0054C0: FF FF FF FF FF FF FF FF FF FF FF FF FF FF FF FF       ................
0054D0: FF FF FF FF FF FF FF FF FF FF FF FF FF FF FF FF       ................
0054E0: FF FF FF FF FF FF FF FF FF FF FF FF FF FF FF FF       ................
0054F0: FF FF FF FF FF FF FF FF FF FF FF FF FF FF FF FF       ................
005500: FF FF FF FF FF FF FF FF FF FF FF FF FF FF FF FF       ................
005510: FF FF FF FF FF FF FF FF FF FF FF FF FF FF FF FF       ................
005520: FF FF FF FF FF FF FF FF FF FF FF FF FF FF FF FF       ................
005530: FF FF FF FF FF FF FF FF FF FF FF FF FF FF FF FF       ................
005540: FF FF FF FF FF FF FF FF FF FF FF FF FF FF FF FF       ................
005550: FF FF FF FF FF FF FF FF FF FF FF FF FF FF FF FF       ................
005560: FF FF FF FF FF FF FF FF FF FF FF FF FF FF FF FF       ................
005570: FF FF FF FF FF FF FF FF FF FF FF FF FF FF FF FF       ................
005580: FF FF FF FF FF FF FF FF FF FF FF FF FF FF FF FF       ................
005590: FF FF FF FF FF FF FF FF FF FF FF FF FF FF FF FF       ................
0055A0: FF FF FF FF FF FF FF FF FF FF FF FF FF FF FF FF       ................
0055B0: FF FF FF FF FF FF FF FF FF FF FF FF FF FF FF FF       ................
0055C0: FF FF FF FF FF FF FF FF FF FF FF FF FF FF FF FF       ................
0055D0: FF FF FF FF FF FF FF FF FF FF FF FF FF FF FF FF       ................
0055E0: FF FF FF FF FF FF FF FF FF FF FF FF FF FF FF FF       ................
0055F0: FF FF FF FF FF FF FF FF FF FF FF FF FF FF FF FF       ................
005600: FF FF FF FF FF FF FF FF FF FF FF FF FF FF FF FF       ................
005610: FF FF FF FF FF FF FF FF FF FF FF FF FF FF FF FF       ................
005620: FF FF FF FF FF FF FF FF FF FF FF FF FF FF FF FF       ................
005630: FF FF FF FF FF FF FF FF FF FF FF FF FF FF FF FF       ................
005640: FF FF FF FF FF FF FF FF FF FF FF FF FF FF FF FF       ................
005650: FF FF FF FF FF FF FF FF FF FF FF FF FF FF FF FF       ................
005660: FF FF FF FF FF FF FF FF FF FF FF FF FF FF FF FF       ................
005670: FF FF FF FF FF FF FF FF FF FF FF FF FF FF FF FF       ................
005680: FF FF FF FF FF FF FF FF FF FF FF FF FF FF FF FF       ................
005690: FF FF FF FF FF FF FF FF FF FF FF FF FF FF FF FF       ................
0056A0: FF FF FF FF FF FF FF FF FF FF FF FF FF FF FF FF       ................
0056B0: FF FF FF FF FF FF FF FF FF FF FF FF FF FF FF FF       ................
0056C0: FF FF FF FF FF FF FF FF FF FF FF FF FF FF FF FF       ................
0056D0: FF FF FF FF FF FF FF FF FF FF FF FF FF FF FF FF       ................
0056E0: FF FF FF FF FF FF FF FF FF FF FF FF FF FF FF FF       ................
0056F0: FF FF FF FF FF FF FF FF FF FF FF FF FF FF FF FF       ................
005700: FF FF FF FF FF FF FF FF FF FF FF FF FF FF FF FF       ................
005710: FF FF FF FF FF FF FF FF FF FF FF FF FF FF FF FF       ................
005720: FF FF FF FF FF FF FF FF FF FF FF FF FF FF FF FF       ................
005730: FF FF FF FF FF FF FF FF FF FF FF FF FF FF FF FF       ................
005740: FF FF FF FF FF FF FF FF FF FF FF FF FF FF FF FF       ................
005750: FF FF FF FF FF FF FF FF FF FF FF FF FF FF FF FF       ................
005760: FF FF FF FF FF FF FF FF FF FF FF FF FF FF FF FF       ................
005770: FF FF FF FF FF FF FF FF FF FF FF FF FF FF FF FF       ................
005780: FF FF FF FF FF FF FF FF FF FF FF FF FF FF FF FF       ................
005790: FF FF FF FF FF FF FF FF FF FF FF FF FF FF FF FF       ................
0057A0: FF FF FF FF FF FF FF FF FF FF FF FF FF FF FF FF       ................
0057B0: FF FF FF FF FF FF FF FF FF FF FF FF FF FF FF FF       ................
0057C0: FF FF FF FF FF FF FF FF FF FF FF FF FF FF FF FF       ................
0057D0: FF FF FF FF FF FF FF FF FF FF FF FF FF FF FF FF       ................
0057E0: FF FF FF FF FF FF FF FF FF FF FF FF FF FF FF FF       ................
0057F0: FF FF FF FF FF FF FF FF FF FF FF FF FF FF FF FF       ................
005800: FF FF FF FF FF FF FF FF FF FF FF FF FF FF FF FF       ................
005810: FF FF FF FF FF FF FF FF FF FF FF FF FF FF FF FF       ................
005820: FF FF FF FF FF FF FF FF FF FF FF FF FF FF FF FF       ................
005830: FF FF FF FF FF FF FF FF FF FF FF FF FF FF FF FF       ................
005840: FF FF FF FF FF FF FF FF FF FF FF FF FF FF FF FF       ................
005850: FF FF FF FF FF FF FF FF FF FF FF FF FF FF FF FF       ................
005860: FF FF FF FF FF FF FF FF FF FF FF FF FF FF FF FF       ................
005870: FF FF FF FF FF FF FF FF FF FF FF FF FF FF FF FF       ................
005880: FF FF FF FF FF FF FF FF FF FF FF FF FF FF FF FF       ................
005890: FF FF FF FF FF FF FF FF FF FF FF FF FF FF FF FF       ................
0058A0: FF FF FF FF FF FF FF FF FF FF FF FF FF FF FF FF       ................
0058B0: FF FF FF FF FF FF FF FF FF FF FF FF FF FF FF FF       ................
0058C0: FF FF FF FF FF FF FF FF FF FF FF FF FF FF FF FF       ................
0058D0: FF FF FF FF FF FF FF FF FF FF FF FF FF FF FF FF       ................
0058E0: FF FF FF FF FF FF FF FF FF FF FF FF FF FF FF FF       ................
0058F0: FF FF FF FF FF FF FF FF FF FF FF FF FF FF FF FF       ................
005900: FF FF FF FF FF FF FF FF FF FF FF FF FF FF FF FF       ................
005910: FF FF FF FF FF FF FF FF FF FF FF FF FF FF FF FF       ................
005920: FF FF FF FF FF FF FF FF FF FF FF FF FF FF FF FF       ................
005930: FF FF FF FF FF FF FF FF FF FF FF FF FF FF FF FF       ................
005940: FF FF FF FF FF FF FF FF FF FF FF FF FF FF FF FF       ................
005950: FF FF FF FF FF FF FF FF FF FF FF FF FF FF FF FF       ................
005960: FF FF FF FF FF FF FF FF FF FF FF FF FF FF FF FF       ................
005970: FF FF FF FF FF FF FF FF FF FF FF FF FF FF FF FF       ................
005980: FF FF FF FF FF FF FF FF FF FF FF FF FF FF FF FF       ................
005990: FF FF FF FF FF FF FF FF FF FF FF FF FF FF FF FF       ................
0059A0: FF FF FF FF FF FF FF FF FF FF FF FF FF FF FF FF       ................
0059B0: FF FF FF FF FF FF FF FF FF FF FF FF FF FF FF FF       ................
0059C0: FF FF FF FF FF FF FF FF FF FF FF FF FF FF FF FF       ................
0059D0: FF FF FF FF FF FF FF FF FF FF FF FF FF FF FF FF       ................
0059E0: FF FF FF FF FF FF FF FF FF FF FF FF FF FF FF FF       ................
0059F0: FF FF FF FF FF FF FF FF FF FF FF FF FF FF FF FF       ................
005A00: FF FF FF FF FF FF FF FF FF FF FF FF FF FF FF FF       ................
005A10: FF FF FF FF FF FF FF FF FF FF FF FF FF FF FF FF       ................
005A20: FF FF FF FF FF FF FF FF FF FF FF FF FF FF FF FF       ................
005A30: FF FF FF FF FF FF FF FF FF FF FF FF FF FF FF FF       ................
005A40: FF FF FF FF FF FF FF FF FF FF FF FF FF FF FF FF       ................
005A50: FF FF FF FF FF FF FF FF FF FF FF FF FF FF FF FF       ................
005A60: FF FF FF FF FF FF FF FF FF FF FF FF FF FF FF FF       ................
005A70: FF FF FF FF FF FF FF FF FF FF FF FF FF FF FF FF       ................
005A80: FF FF FF FF FF FF FF FF FF FF FF FF FF FF FF FF       ................
005A90: FF FF FF FF FF FF FF FF FF FF FF FF FF FF FF FF       ................
005AA0: FF FF FF FF FF FF FF FF FF FF FF FF FF FF FF FF       ................
005AB0: FF FF FF FF FF FF FF FF FF FF FF FF FF FF FF FF       ................
005AC0: FF FF FF FF FF FF FF FF FF FF FF FF FF FF FF FF       ................
005AD0: FF FF FF FF FF FF FF FF FF FF FF FF FF FF FF FF       ................
005AE0: FF FF FF FF FF FF FF FF FF FF FF FF FF FF FF FF       ................
005AF0: FF FF FF FF FF FF FF FF FF FF FF FF FF FF FF FF       ................
005B00: FF FF FF FF FF FF FF FF FF FF FF FF FF FF FF FF       ................
005B10: FF FF FF FF FF FF FF FF FF FF FF FF FF FF FF FF       ................
005B20: FF FF FF FF FF FF FF FF FF FF FF FF FF FF FF FF       ................
005B30: FF FF FF FF FF FF FF FF FF FF FF FF FF FF FF FF       ................
005B40: FF FF FF FF FF FF FF FF FF FF FF FF FF FF FF FF       ................
005B50: FF FF FF FF FF FF FF FF FF FF FF FF FF FF FF FF       ................
005B60: FF FF FF FF FF FF FF FF FF FF FF FF FF FF FF FF       ................
005B70: FF FF FF FF FF FF FF FF FF FF FF FF FF FF FF FF       ................
005B80: FF FF FF FF FF FF FF FF FF FF FF FF FF FF FF FF       ................
005B90: FF FF FF FF FF FF FF FF FF FF FF FF FF FF FF FF       ................
005BA0: FF FF FF FF FF FF FF FF FF FF FF FF FF FF FF FF       ................
005BB0: FF FF FF FF FF FF FF FF FF FF FF FF FF FF FF FF       ................
005BC0: FF FF FF FF FF FF FF FF FF FF FF FF FF FF FF FF       ................
005BD0: FF FF FF FF FF FF FF FF FF FF FF FF FF FF FF FF       ................
005BE0: FF FF FF FF FF FF FF FF FF FF FF FF FF FF FF FF       ................
005BF0: FF FF FF FF FF FF FF FF FF FF FF FF FF FF FF FF       ................
005C00: FF FF FF FF FF FF FF FF FF FF FF FF FF FF FF FF       ................
005C10: FF FF FF FF FF FF FF FF FF FF FF FF FF FF FF FF       ................
005C20: FF FF FF FF FF FF FF FF FF FF FF FF FF FF FF FF       ................
005C30: FF FF FF FF FF FF FF FF FF FF FF FF FF FF FF FF       ................
005C40: FF FF FF FF FF FF FF FF FF FF FF FF FF FF FF FF       ................
005C50: FF FF FF FF FF FF FF FF FF FF FF FF FF FF FF FF       ................
005C60: FF FF FF FF FF FF FF FF FF FF FF FF FF FF FF FF       ................
005C70: FF FF FF FF FF FF FF FF FF FF FF FF FF FF FF FF       ................
005C80: FF FF FF FF FF FF FF FF FF FF FF FF FF FF FF FF       ................
005C90: FF FF FF FF FF FF FF FF FF FF FF FF FF FF FF FF       ................
005CA0: FF FF FF FF FF FF FF FF FF FF FF FF FF FF FF FF       ................
005CB0: FF FF FF FF FF FF FF FF FF FF FF FF FF FF FF FF       ................
005CC0: FF FF FF FF FF FF FF FF FF FF FF FF FF FF FF FF       ................
005CD0: FF FF FF FF FF FF FF FF FF FF FF FF FF FF FF FF       ................
005CE0: FF FF FF FF FF FF FF FF FF FF FF FF FF FF FF FF       ................
005CF0: FF FF FF FF FF FF FF FF FF FF FF FF FF FF FF FF       ................
005D00: FF FF FF FF FF FF FF FF FF FF FF FF FF FF FF FF       ................
005D10: FF FF FF FF FF FF FF FF FF FF FF FF FF FF FF FF       ................
005D20: FF FF FF FF FF FF FF FF FF FF FF FF FF FF FF FF       ................
005D30: FF FF FF FF FF FF FF FF FF FF FF FF FF FF FF FF       ................
005D40: FF FF FF FF FF FF FF FF FF FF FF FF FF FF FF FF       ................
005D50: FF FF FF FF FF FF FF FF FF FF FF FF FF FF FF FF       ................
005D60: FF FF FF FF FF FF FF FF FF FF FF FF FF FF FF FF       ................
005D70: FF FF FF FF FF FF FF FF FF FF FF FF FF FF FF FF       ................
005D80: FF FF FF FF FF FF FF FF FF FF FF FF FF FF FF FF       ................
005D90: FF FF FF FF FF FF FF FF FF FF FF FF FF FF FF FF       ................
005DA0: FF FF FF FF FF FF FF FF FF FF FF FF FF FF FF FF       ................
005DB0: FF FF FF FF FF FF FF FF FF FF FF FF FF FF FF FF       ................
005DC0: FF FF FF FF FF FF FF FF FF FF FF FF FF FF FF FF       ................
005DD0: FF FF FF FF FF FF FF FF FF FF FF FF FF FF FF FF       ................
005DE0: FF FF FF FF FF FF FF FF FF FF FF FF FF FF FF FF       ................
005DF0: FF FF FF FF FF FF FF FF FF FF FF FF FF FF FF FF       ................
005E00: FF FF FF FF FF FF FF FF FF FF FF FF FF FF FF FF       ................
005E10: FF FF FF FF FF FF FF FF FF FF FF FF FF FF FF FF       ................
005E20: FF FF FF FF FF FF FF FF FF FF FF FF FF FF FF FF       ................
005E30: FF FF FF FF FF FF FF FF FF FF FF FF FF FF FF FF       ................
005E40: FF FF FF FF FF FF FF FF FF FF FF FF FF FF FF FF       ................
005E50: FF FF FF FF FF FF FF FF FF FF FF FF FF FF FF FF       ................
005E60: FF FF FF FF FF FF FF FF FF FF FF FF FF FF FF FF       ................
005E70: FF FF FF FF FF FF FF FF FF FF FF FF FF FF FF FF       ................
005E80: FF FF FF FF FF FF FF FF FF FF FF FF FF FF FF FF       ................
005E90: FF FF FF FF FF FF FF FF FF FF FF FF FF FF FF FF       ................
005EA0: FF FF FF FF FF FF FF FF FF FF FF FF FF FF FF FF       ................
005EB0: FF FF FF FF FF FF FF FF FF FF FF FF FF FF FF FF       ................
005EC0: FF FF FF FF FF FF FF FF FF FF FF FF FF FF FF FF       ................
005ED0: FF FF FF FF FF FF FF FF FF FF FF FF FF FF FF FF       ................
005EE0: FF FF FF FF FF FF FF FF FF FF FF FF FF FF FF FF       ................
005EF0: FF FF FF FF FF FF FF FF FF FF FF FF FF FF FF FF       ................
005F00: FF FF FF FF FF FF FF FF FF FF FF FF FF FF FF FF       ................
005F10: FF FF FF FF FF FF FF FF FF FF FF FF FF FF FF FF       ................
005F20: FF FF FF FF FF FF FF FF FF FF FF FF FF FF FF FF       ................
005F30: FF FF FF FF FF FF FF FF FF FF FF FF FF FF FF FF       ................
005F40: FF FF FF FF FF FF FF FF FF FF FF FF FF FF FF FF       ................
005F50: FF FF FF FF FF FF FF FF FF FF FF FF FF FF FF FF       ................
005F60: FF FF FF FF FF FF FF FF FF FF FF FF FF FF FF FF       ................
005F70: FF FF FF FF FF FF FF FF FF FF FF FF FF FF FF FF       ................
005F80: FF FF FF FF FF FF FF FF FF FF FF FF FF FF FF FF       ................
005F90: FF FF FF FF FF FF FF FF FF FF FF FF FF FF FF FF       ................
005FA0: FF FF FF FF FF FF FF FF FF FF FF FF FF FF FF FF       ................
005FB0: FF FF FF FF FF FF FF FF FF FF FF FF FF FF FF FF       ................
005FC0: FF FF FF FF FF FF FF FF FF FF FF FF FF FF FF FF       ................
005FD0: FF FF FF FF FF FF FF FF FF FF FF FF FF FF FF FF       ................
005FE0: FF FF FF FF FF FF FF FF FF FF FF FF FF FF FF FF       ................
005FF0: FF FF FF FF FF FF FF FF FF FF FF FF FF FF FF FF       ................
006000: FF FF FF FF FF FF FF FF FF FF FF FF FF FF FF FF       ................
006010: FF FF FF FF FF FF FF FF FF FF FF FF FF FF FF FF       ................
006020: FF FF FF FF FF FF FF FF FF FF FF FF FF FF FF FF       ................
006030: FF FF FF FF FF FF FF FF FF FF FF FF FF FF FF FF       ................
006040: FF FF FF FF FF FF FF FF FF FF FF FF FF FF FF FF       ................
006050: FF FF FF FF FF FF FF FF FF FF FF FF FF FF FF FF       ................
006060: FF FF FF FF FF FF FF FF FF FF FF FF FF FF FF FF       ................
006070: FF FF FF FF FF FF FF FF FF FF FF FF FF FF FF FF       ................
006080: FF FF FF FF FF FF FF FF FF FF FF FF FF FF FF FF       ................
006090: FF FF FF FF FF FF FF FF FF FF FF FF FF FF FF FF       ................
0060A0: FF FF FF FF FF FF FF FF FF FF FF FF FF FF FF FF       ................
0060B0: FF FF FF FF FF FF FF FF FF FF FF FF FF FF FF FF       ................
0060C0: FF FF FF FF FF FF FF FF FF FF FF FF FF FF FF FF       ................
0060D0: FF FF FF FF FF FF FF FF FF FF FF FF FF FF FF FF       ................
0060E0: FF FF FF FF FF FF FF FF FF FF FF FF FF FF FF FF       ................
0060F0: FF FF FF FF FF FF FF FF FF FF FF FF FF FF FF FF       ................
006100: FF FF FF FF FF FF FF FF FF FF FF FF FF FF FF FF       ................
006110: FF FF FF FF FF FF FF FF FF FF FF FF FF FF FF FF       ................
006120: FF FF FF FF FF FF FF FF FF FF FF FF FF FF FF FF       ................
006130: FF FF FF FF FF FF FF FF FF FF FF FF FF FF FF FF       ................
006140: FF FF FF FF FF FF FF FF FF FF FF FF FF FF FF FF       ................
006150: FF FF FF FF FF FF FF FF FF FF FF FF FF FF FF FF       ................
006160: FF FF FF FF FF FF FF FF FF FF FF FF FF FF FF FF       ................
006170: FF FF FF FF FF FF FF FF FF FF FF FF FF FF FF FF       ................
006180: FF FF FF FF FF FF FF FF FF FF FF FF FF FF FF FF       ................
006190: FF FF FF FF FF FF FF FF FF FF FF FF FF FF FF FF       ................
0061A0: FF FF FF FF FF FF FF FF FF FF FF FF FF FF FF FF       ................
0061B0: FF FF FF FF FF FF FF FF FF FF FF FF FF FF FF FF       ................
0061C0: FF FF FF FF FF FF FF FF FF FF FF FF FF FF FF FF       ................
0061D0: FF FF FF FF FF FF FF FF FF FF FF FF FF FF FF FF       ................
0061E0: FF FF FF FF FF FF FF FF FF FF FF FF FF FF FF FF       ................
0061F0: FF FF FF FF FF FF FF FF FF FF FF FF FF FF FF FF       ................
006200: FF FF FF FF FF FF FF FF FF FF FF FF FF FF FF FF       ................
006210: FF FF FF FF FF FF FF FF FF FF FF FF FF FF FF FF       ................
006220: FF FF FF FF FF FF FF FF FF FF FF FF FF FF FF FF       ................
006230: FF FF FF FF FF FF FF FF FF FF FF FF FF FF FF FF       ................
006240: FF FF FF FF FF FF FF FF FF FF FF FF FF FF FF FF       ................
006250: FF FF FF FF FF FF FF FF FF FF FF FF FF FF FF FF       ................
006260: FF FF FF FF FF FF FF FF FF FF FF FF FF FF FF FF       ................
006270: FF FF FF FF FF FF FF FF FF FF FF FF FF FF FF FF       ................
006280: FF FF FF FF FF FF FF FF FF FF FF FF FF FF FF FF       ................
006290: FF FF FF FF FF FF FF FF FF FF FF FF FF FF FF FF       ................
0062A0: FF FF FF FF FF FF FF FF FF FF FF FF FF FF FF FF       ................
0062B0: FF FF FF FF FF FF FF FF FF FF FF FF FF FF FF FF       ................
0062C0: FF FF FF FF FF FF FF FF FF FF FF FF FF FF FF FF       ................
0062D0: FF FF FF FF FF FF FF FF FF FF FF FF FF FF FF FF       ................
0062E0: FF FF FF FF FF FF FF FF FF FF FF FF FF FF FF FF       ................
0062F0: FF FF FF FF FF FF FF FF FF FF FF FF FF FF FF FF       ................
006300: FF FF FF FF FF FF FF FF FF FF FF FF FF FF FF FF       ................
006310: FF FF FF FF FF FF FF FF FF FF FF FF FF FF FF FF       ................
006320: FF FF FF FF FF FF FF FF FF FF FF FF FF FF FF FF       ................
006330: FF FF FF FF FF FF FF FF FF FF FF FF FF FF FF FF       ................
006340: FF FF FF FF FF FF FF FF FF FF FF FF FF FF FF FF       ................
006350: FF FF FF FF FF FF FF FF FF FF FF FF FF FF FF FF       ................
006360: FF FF FF FF FF FF FF FF FF FF FF FF FF FF FF FF       ................
006370: FF FF FF FF FF FF FF FF FF FF FF FF FF FF FF FF       ................
006380: FF FF FF FF FF FF FF FF FF FF FF FF FF FF FF FF       ................
006390: FF FF FF FF FF FF FF FF FF FF FF FF FF FF FF FF       ................
0063A0: FF FF FF FF FF FF FF FF FF FF FF FF FF FF FF FF       ................
0063B0: FF FF FF FF FF FF FF FF FF FF FF FF FF FF FF FF       ................
0063C0: FF FF FF FF FF FF FF FF FF FF FF FF FF FF FF FF       ................
0063D0: FF FF FF FF FF FF FF FF FF FF FF FF FF FF FF FF       ................
0063E0: FF FF FF FF FF FF FF FF FF FF FF FF FF FF FF FF       ................
0063F0: FF FF FF FF FF FF FF FF FF FF FF FF FF FF FF FF       ................
006400: FF FF FF FF FF FF FF FF FF FF FF FF FF FF FF FF       ................
006410: FF FF FF FF FF FF FF FF FF FF FF FF FF FF FF FF       ................
006420: FF FF FF FF FF FF FF FF FF FF FF FF FF FF FF FF       ................
006430: FF FF FF FF FF FF FF FF FF FF FF FF FF FF FF FF       ................
006440: FF FF FF FF FF FF FF FF FF FF FF FF FF FF FF FF       ................
006450: FF FF FF FF FF FF FF FF FF FF FF FF FF FF FF FF       ................
006460: FF FF FF FF FF FF FF FF FF FF FF FF FF FF FF FF       ................
006470: FF FF FF FF FF FF FF FF FF FF FF FF FF FF FF FF       ................
006480: FF FF FF FF FF FF FF FF FF FF FF FF FF FF FF FF       ................
006490: FF FF FF FF FF FF FF FF FF FF FF FF FF FF FF FF       ................
0064A0: FF FF FF FF FF FF FF FF FF FF FF FF FF FF FF FF       ................
0064B0: FF FF FF FF FF FF FF FF FF FF FF FF FF FF FF FF       ................
0064C0: FF FF FF FF FF FF FF FF FF FF FF FF FF FF FF FF       ................
0064D0: FF FF FF FF FF FF FF FF FF FF FF FF FF FF FF FF       ................
0064E0: FF FF FF FF FF FF FF FF FF FF FF FF FF FF FF FF       ................
0064F0: FF FF FF FF FF FF FF FF FF FF FF FF FF FF FF FF       ................
006500: FF FF FF FF FF FF FF FF FF FF FF FF FF FF FF FF       ................
006510: FF FF FF FF FF FF FF FF FF FF FF FF FF FF FF FF       ................
006520: FF FF FF FF FF FF FF FF FF FF FF FF FF FF FF FF       ................
006530: FF FF FF FF FF FF FF FF FF FF FF FF FF FF FF FF       ................
006540: FF FF FF FF FF FF FF FF FF FF FF FF FF FF FF FF       ................
006550: FF FF FF FF FF FF FF FF FF FF FF FF FF FF FF FF       ................
006560: FF FF FF FF FF FF FF FF FF FF FF FF FF FF FF FF       ................
006570: FF FF FF FF FF FF FF FF FF FF FF FF FF FF FF FF       ................
006580: FF FF FF FF FF FF FF FF FF FF FF FF FF FF FF FF       ................
006590: FF FF FF FF FF FF FF FF FF FF FF FF FF FF FF FF       ................
0065A0: FF FF FF FF FF FF FF FF FF FF FF FF FF FF FF FF       ................
0065B0: FF FF FF FF FF FF FF FF FF FF FF FF FF FF FF FF       ................
0065C0: FF FF FF FF FF FF FF FF FF FF FF FF FF FF FF FF       ................
0065D0: FF FF FF FF FF FF FF FF FF FF FF FF FF FF FF FF       ................
0065E0: FF FF FF FF FF FF FF FF FF FF FF FF FF FF FF FF       ................
0065F0: FF FF FF FF FF FF FF FF FF FF FF FF FF FF FF FF       ................
006600: FF FF FF FF FF FF FF FF FF FF FF FF FF FF FF FF       ................
006610: FF FF FF FF FF FF FF FF FF FF FF FF FF FF FF FF       ................
006620: FF FF FF FF FF FF FF FF FF FF FF FF FF FF FF FF       ................
006630: FF FF FF FF FF FF FF FF FF FF FF FF FF FF FF FF       ................
006640: FF FF FF FF FF FF FF FF FF FF FF FF FF FF FF FF       ................
006650: FF FF FF FF FF FF FF FF FF FF FF FF FF FF FF FF       ................
006660: FF FF FF FF FF FF FF FF FF FF FF FF FF FF FF FF       ................
006670: FF FF FF FF FF FF FF FF FF FF FF FF FF FF FF FF       ................
006680: FF FF FF FF FF FF FF FF FF FF FF FF FF FF FF FF       ................
006690: FF FF FF FF FF FF FF FF FF FF FF FF FF FF FF FF       ................
0066A0: FF FF FF FF FF FF FF FF FF FF FF FF FF FF FF FF       ................
0066B0: FF FF FF FF FF FF FF FF FF FF FF FF FF FF FF FF       ................
0066C0: FF FF FF FF FF FF FF FF FF FF FF FF FF FF FF FF       ................
0066D0: FF FF FF FF FF FF FF FF FF FF FF FF FF FF FF FF       ................
0066E0: FF FF FF FF FF FF FF FF FF FF FF FF FF FF FF FF       ................
0066F0: FF FF FF FF FF FF FF FF FF FF FF FF FF FF FF FF       ................
006700: FF FF FF FF FF FF FF FF FF FF FF FF FF FF FF FF       ................
006710: FF FF FF FF FF FF FF FF FF FF FF FF FF FF FF FF       ................
006720: FF FF FF FF FF FF FF FF FF FF FF FF FF FF FF FF       ................
006730: FF FF FF FF FF FF FF FF FF FF FF FF FF FF FF FF       ................
006740: FF FF FF FF FF FF FF FF FF FF FF FF FF FF FF FF       ................
006750: FF FF FF FF FF FF FF FF FF FF FF FF FF FF FF FF       ................
006760: FF FF FF FF FF FF FF FF FF FF FF FF FF FF FF FF       ................
006770: FF FF FF FF FF FF FF FF FF FF FF FF FF FF FF FF       ................
006780: FF FF FF FF FF FF FF FF FF FF FF FF FF FF FF FF       ................
006790: FF FF FF FF FF FF FF FF FF FF FF FF FF FF FF FF       ................
0067A0: FF FF FF FF FF FF FF FF FF FF FF FF FF FF FF FF       ................
0067B0: FF FF FF FF FF FF FF FF FF FF FF FF FF FF FF FF       ................
0067C0: FF FF FF FF FF FF FF FF FF FF FF FF FF FF FF FF       ................
0067D0: FF FF FF FF FF FF FF FF FF FF FF FF FF FF FF FF       ................
0067E0: FF FF FF FF FF FF FF FF FF FF FF FF FF FF FF FF       ................
0067F0: FF FF FF FF FF FF FF FF FF FF FF FF FF FF FF FF       ................
006800: FF FF FF FF FF FF FF FF FF FF FF FF FF FF FF FF       ................
006810: FF FF FF FF FF FF FF FF FF FF FF FF FF FF FF FF       ................
006820: FF FF FF FF FF FF FF FF FF FF FF FF FF FF FF FF       ................
006830: FF FF FF FF FF FF FF FF FF FF FF FF FF FF FF FF       ................
006840: FF FF FF FF FF FF FF FF FF FF FF FF FF FF FF FF       ................
006850: FF FF FF FF FF FF FF FF FF FF FF FF FF FF FF FF       ................
006860: FF FF FF FF FF FF FF FF FF FF FF FF FF FF FF FF       ................
006870: FF FF FF FF FF FF FF FF FF FF FF FF FF FF FF FF       ................
006880: FF FF FF FF FF FF FF FF FF FF FF FF FF FF FF FF       ................
006890: FF FF FF FF FF FF FF FF FF FF FF FF FF FF FF FF       ................
0068A0: FF FF FF FF FF FF FF FF FF FF FF FF FF FF FF FF       ................
0068B0: FF FF FF FF FF FF FF FF FF FF FF FF FF FF FF FF       ................
0068C0: FF FF FF FF FF FF FF FF FF FF FF FF FF FF FF FF       ................
0068D0: FF FF FF FF FF FF FF FF FF FF FF FF FF FF FF FF       ................
0068E0: FF FF FF FF FF FF FF FF FF FF FF FF FF FF FF FF       ................
0068F0: FF FF FF FF FF FF FF FF FF FF FF FF FF FF FF FF       ................
006900: FF FF FF FF FF FF FF FF FF FF FF FF FF FF FF FF       ................
006910: FF FF FF FF FF FF FF FF FF FF FF FF FF FF FF FF       ................
006920: FF FF FF FF FF FF FF FF FF FF FF FF FF FF FF FF       ................
006930: FF FF FF FF FF FF FF FF FF FF FF FF FF FF FF FF       ................
006940: FF FF FF FF FF FF FF FF FF FF FF FF FF FF FF FF       ................
006950: FF FF FF FF FF FF FF FF FF FF FF FF FF FF FF FF       ................
006960: FF FF FF FF FF FF FF FF FF FF FF FF FF FF FF FF       ................
006970: FF FF FF FF FF FF FF FF FF FF FF FF FF FF FF FF       ................
006980: FF FF FF FF FF FF FF FF FF FF FF FF FF FF FF FF       ................
006990: FF FF FF FF FF FF FF FF FF FF FF FF FF FF FF FF       ................
0069A0: FF FF FF FF FF FF FF FF FF FF FF FF FF FF FF FF       ................
0069B0: FF FF FF FF FF FF FF FF FF FF FF FF FF FF FF FF       ................
0069C0: FF FF FF FF FF FF FF FF FF FF FF FF FF FF FF FF       ................
0069D0: FF FF FF FF FF FF FF FF FF FF FF FF FF FF FF FF       ................
0069E0: FF FF FF FF FF FF FF FF FF FF FF FF FF FF FF FF       ................
0069F0: FF FF FF FF FF FF FF FF FF FF FF FF FF FF FF FF       ................
006A00: FF FF FF FF FF FF FF FF FF FF FF FF FF FF FF FF       ................
006A10: FF FF FF FF FF FF FF FF FF FF FF FF FF FF FF FF       ................
006A20: FF FF FF FF FF FF FF FF FF FF FF FF FF FF FF FF       ................
006A30: FF FF FF FF FF FF FF FF FF FF FF FF FF FF FF FF       ................
006A40: FF FF FF FF FF FF FF FF FF FF FF FF FF FF FF FF       ................
006A50: FF FF FF FF FF FF FF FF FF FF FF FF FF FF FF FF       ................
006A60: FF FF FF FF FF FF FF FF FF FF FF FF FF FF FF FF       ................
006A70: FF FF FF FF FF FF FF FF FF FF FF FF FF FF FF FF       ................
006A80: FF FF FF FF FF FF FF FF FF FF FF FF FF FF FF FF       ................
006A90: FF FF FF FF FF FF FF FF FF FF FF FF FF FF FF FF       ................
006AA0: FF FF FF FF FF FF FF FF FF FF FF FF FF FF FF FF       ................
006AB0: FF FF FF FF FF FF FF FF FF FF FF FF FF FF FF FF       ................
006AC0: FF FF FF FF FF FF FF FF FF FF FF FF FF FF FF FF       ................
006AD0: FF FF FF FF FF FF FF FF FF FF FF FF FF FF FF FF       ................
006AE0: FF FF FF FF FF FF FF FF FF FF FF FF FF FF FF FF       ................
006AF0: FF FF FF FF FF FF FF FF FF FF FF FF FF FF FF FF       ................
006B00: FF FF FF FF FF FF FF FF FF FF FF FF FF FF FF FF       ................
006B10: FF FF FF FF FF FF FF FF FF FF FF FF FF FF FF FF       ................
006B20: FF FF FF FF FF FF FF FF FF FF FF FF FF FF FF FF       ................
006B30: FF FF FF FF FF FF FF FF FF FF FF FF FF FF FF FF       ................
006B40: FF FF FF FF FF FF FF FF FF FF FF FF FF FF FF FF       ................
006B50: FF FF FF FF FF FF FF FF FF FF FF FF FF FF FF FF       ................
006B60: FF FF FF FF FF FF FF FF FF FF FF FF FF FF FF FF       ................
006B70: FF FF FF FF FF FF FF FF FF FF FF FF FF FF FF FF       ................
006B80: FF FF FF FF FF FF FF FF FF FF FF FF FF FF FF FF       ................
006B90: FF FF FF FF FF FF FF FF FF FF FF FF FF FF FF FF       ................
006BA0: FF FF FF FF FF FF FF FF FF FF FF FF FF FF FF FF       ................
006BB0: FF FF FF FF FF FF FF FF FF FF FF FF FF FF FF FF       ................
006BC0: FF FF FF FF FF FF FF FF FF FF FF FF FF FF FF FF       ................
006BD0: FF FF FF FF FF FF FF FF FF FF FF FF FF FF FF FF       ................
006BE0: FF FF FF FF FF FF FF FF FF FF FF FF FF FF FF FF       ................
006BF0: FF FF FF FF FF FF FF FF FF FF FF FF FF FF FF FF       ................
006C00: FF FF FF FF FF FF FF FF FF FF FF FF FF FF FF FF       ................
006C10: FF FF FF FF FF FF FF FF FF FF FF FF FF FF FF FF       ................
006C20: FF FF FF FF FF FF FF FF FF FF FF FF FF FF FF FF       ................
006C30: FF FF FF FF FF FF FF FF FF FF FF FF FF FF FF FF       ................
006C40: FF FF FF FF FF FF FF FF FF FF FF FF FF FF FF FF       ................
006C50: FF FF FF FF FF FF FF FF FF FF FF FF FF FF FF FF       ................
006C60: FF FF FF FF FF FF FF FF FF FF FF FF FF FF FF FF       ................
006C70: FF FF FF FF FF FF FF FF FF FF FF FF FF FF FF FF       ................
006C80: FF FF FF FF FF FF FF FF FF FF FF FF FF FF FF FF       ................
006C90: FF FF FF FF FF FF FF FF FF FF FF FF FF FF FF FF       ................
006CA0: FF FF FF FF FF FF FF FF FF FF FF FF FF FF FF FF       ................
006CB0: FF FF FF FF FF FF FF FF FF FF FF FF FF FF FF FF       ................
006CC0: FF FF FF FF FF FF FF FF FF FF FF FF FF FF FF FF       ................
006CD0: FF FF FF FF FF FF FF FF FF FF FF FF FF FF FF FF       ................
006CE0: FF FF FF FF FF FF FF FF FF FF FF FF FF FF FF FF       ................
006CF0: FF FF FF FF FF FF FF FF FF FF FF FF FF FF FF FF       ................
006D00: FF FF FF FF FF FF FF FF FF FF FF FF FF FF FF FF       ................
006D10: FF FF FF FF FF FF FF FF FF FF FF FF FF FF FF FF       ................
006D20: FF FF FF FF FF FF FF FF FF FF FF FF FF FF FF FF       ................
006D30: FF FF FF FF FF FF FF FF FF FF FF FF FF FF FF FF       ................
006D40: FF FF FF FF FF FF FF FF FF FF FF FF FF FF FF FF       ................
006D50: FF FF FF FF FF FF FF FF FF FF FF FF FF FF FF FF       ................
006D60: FF FF FF FF FF FF FF FF FF FF FF FF FF FF FF FF       ................
006D70: FF FF FF FF FF FF FF FF FF FF FF FF FF FF FF FF       ................
006D80: FF FF FF FF FF FF FF FF FF FF FF FF FF FF FF FF       ................
006D90: FF FF FF FF FF FF FF FF FF FF FF FF FF FF FF FF       ................
006DA0: FF FF FF FF FF FF FF FF FF FF FF FF FF FF FF FF       ................
006DB0: FF FF FF FF FF FF FF FF FF FF FF FF FF FF FF FF       ................
006DC0: FF FF FF FF FF FF FF FF FF FF FF FF FF FF FF FF       ................
006DD0: FF FF FF FF FF FF FF FF FF FF FF FF FF FF FF FF       ................
006DE0: FF FF FF FF FF FF FF FF FF FF FF FF FF FF FF FF       ................
006DF0: FF FF FF FF FF FF FF FF FF FF FF FF FF FF FF FF       ................
006E00: FF FF FF FF FF FF FF FF FF FF FF FF FF FF FF FF       ................
006E10: FF FF FF FF FF FF FF FF FF FF FF FF FF FF FF FF       ................
006E20: FF FF FF FF FF FF FF FF FF FF FF FF FF FF FF FF       ................
006E30: FF FF FF FF FF FF FF FF FF FF FF FF FF FF FF FF       ................
006E40: FF FF FF FF FF FF FF FF FF FF FF FF FF FF FF FF       ................
006E50: FF FF FF FF FF FF FF FF FF FF FF FF FF FF FF FF       ................
006E60: FF FF FF FF FF FF FF FF FF FF FF FF FF FF FF FF       ................
006E70: FF FF FF FF FF FF FF FF FF FF FF FF FF FF FF FF       ................
006E80: FF FF FF FF FF FF FF FF FF FF FF FF FF FF FF FF       ................
006E90: FF FF FF FF FF FF FF FF FF FF FF FF FF FF FF FF       ................
006EA0: FF FF FF FF FF FF FF FF FF FF FF FF FF FF FF FF       ................
006EB0: FF FF FF FF FF FF FF FF FF FF FF FF FF FF FF FF       ................
006EC0: FF FF FF FF FF FF FF FF FF FF FF FF FF FF FF FF       ................
006ED0: FF FF FF FF FF FF FF FF FF FF FF FF FF FF FF FF       ................
006EE0: FF FF FF FF FF FF FF FF FF FF FF FF FF FF FF FF       ................
006EF0: FF FF FF FF FF FF FF FF FF FF FF FF FF FF FF FF       ................
006F00: FF FF FF FF FF FF FF FF FF FF FF FF FF FF FF FF       ................
006F10: FF FF FF FF FF FF FF FF FF FF FF FF FF FF FF FF       ................
006F20: FF FF FF FF FF FF FF FF FF FF FF FF FF FF FF FF       ................
006F30: FF FF FF FF FF FF FF FF FF FF FF FF FF FF FF FF       ................
006F40: FF FF FF FF FF FF FF FF FF FF FF FF FF FF FF FF       ................
006F50: FF FF FF FF FF FF FF FF FF FF FF FF FF FF FF FF       ................
006F60: FF FF FF FF FF FF FF FF FF FF FF FF FF FF FF FF       ................
006F70: FF FF FF FF FF FF FF FF FF FF FF FF FF FF FF FF       ................
006F80: FF FF FF FF FF FF FF FF FF FF FF FF FF FF FF FF       ................
006F90: FF FF FF FF FF FF FF FF FF FF FF FF FF FF FF FF       ................
006FA0: FF FF FF FF FF FF FF FF FF FF FF FF FF FF FF FF       ................
006FB0: FF FF FF FF FF FF FF FF FF FF FF FF FF FF FF FF       ................
006FC0: FF FF FF FF FF FF FF FF FF FF FF FF FF FF FF FF       ................
006FD0: FF FF FF FF FF FF FF FF FF FF FF FF FF FF FF FF       ................
006FE0: FF FF FF FF FF FF FF FF FF FF FF FF FF FF FF FF       ................
006FF0: FF FF FF FF FF FF FF FF FF FF FF FF FF FF FF FF       ................
007000: FF FF FF FF FF FF FF FF FF FF FF FF FF FF FF FF       ................
007010: FF FF FF FF FF FF FF FF FF FF FF FF FF FF FF FF       ................
007020: FF FF FF FF FF FF FF FF FF FF FF FF FF FF FF FF       ................
007030: FF FF FF FF FF FF FF FF FF FF FF FF FF FF FF FF       ................
007040: FF FF FF FF FF FF FF FF FF FF FF FF FF FF FF FF       ................
007050: FF FF FF FF FF FF FF FF FF FF FF FF FF FF FF FF       ................
007060: FF FF FF FF FF FF FF FF FF FF FF FF FF FF FF FF       ................
007070: FF FF FF FF FF FF FF FF FF FF FF FF FF FF FF FF       ................
007080: FF FF FF FF FF FF FF FF FF FF FF FF FF FF FF FF       ................
007090: FF FF FF FF FF FF FF FF FF FF FF FF FF FF FF FF       ................
0070A0: FF FF FF FF FF FF FF FF FF FF FF FF FF FF FF FF       ................
0070B0: FF FF FF FF FF FF FF FF FF FF FF FF FF FF FF FF       ................
0070C0: FF FF FF FF FF FF FF FF FF FF FF FF FF FF FF FF       ................
0070D0: FF FF FF FF FF FF FF FF FF FF FF FF FF FF FF FF       ................
0070E0: FF FF FF FF FF FF FF FF FF FF FF FF FF FF FF FF       ................
0070F0: FF FF FF FF FF FF FF FF FF FF FF FF FF FF FF FF       ................
007100: FF FF FF FF FF FF FF FF FF FF FF FF FF FF FF FF       ................
007110: FF FF FF FF FF FF FF FF FF FF FF FF FF FF FF FF       ................
007120: FF FF FF FF FF FF FF FF FF FF FF FF FF FF FF FF       ................
007130: FF FF FF FF FF FF FF FF FF FF FF FF FF FF FF FF       ................
007140: FF FF FF FF FF FF FF FF FF FF FF FF FF FF FF FF       ................
007150: FF FF FF FF FF FF FF FF FF FF FF FF FF FF FF FF       ................
007160: FF FF FF FF FF FF FF FF FF FF FF FF FF FF FF FF       ................
007170: FF FF FF FF FF FF FF FF FF FF FF FF FF FF FF FF       ................
007180: FF FF FF FF FF FF FF FF FF FF FF FF FF FF FF FF       ................
007190: FF FF FF FF FF FF FF FF FF FF FF FF FF FF FF FF       ................
0071A0: FF FF FF FF FF FF FF FF FF FF FF FF FF FF FF FF       ................
0071B0: FF FF FF FF FF FF FF FF FF FF FF FF FF FF FF FF       ................
0071C0: FF FF FF FF FF FF FF FF FF FF FF FF FF FF FF FF       ................
0071D0: FF FF FF FF FF FF FF FF FF FF FF FF FF FF FF FF       ................
0071E0: FF FF FF FF FF FF FF FF FF FF FF FF FF FF FF FF       ................
0071F0: FF FF FF FF FF FF FF FF FF FF FF FF FF FF FF FF       ................
007200: FF FF FF FF FF FF FF FF FF FF FF FF FF FF FF FF       ................
007210: FF FF FF FF FF FF FF FF FF FF FF FF FF FF FF FF       ................
007220: FF FF FF FF FF FF FF FF FF FF FF FF FF FF FF FF       ................
007230: FF FF FF FF FF FF FF FF FF FF FF FF FF FF FF FF       ................
007240: FF FF FF FF FF FF FF FF FF FF FF FF FF FF FF FF       ................
007250: FF FF FF FF FF FF FF FF FF FF FF FF FF FF FF FF       ................
007260: FF FF FF FF FF FF FF FF FF FF FF FF FF FF FF FF       ................
007270: FF FF FF FF FF FF FF FF FF FF FF FF FF FF FF FF       ................
007280: FF FF FF FF FF FF FF FF FF FF FF FF FF FF FF FF       ................
007290: FF FF FF FF FF FF FF FF FF FF FF FF FF FF FF FF       ................
0072A0: FF FF FF FF FF FF FF FF FF FF FF FF FF FF FF FF       ................
0072B0: FF FF FF FF FF FF FF FF FF FF FF FF FF FF FF FF       ................
0072C0: FF FF FF FF FF FF FF FF FF FF FF FF FF FF FF FF       ................
0072D0: FF FF FF FF FF FF FF FF FF FF FF FF FF FF FF FF       ................
0072E0: FF FF FF FF FF FF FF FF FF FF FF FF FF FF FF FF       ................
0072F0: FF FF FF FF FF FF FF FF FF FF FF FF FF FF FF FF       ................
007300: FF FF FF FF FF FF FF FF FF FF FF FF FF FF FF FF       ................
007310: FF FF FF FF FF FF FF FF FF FF FF FF FF FF FF FF       ................
007320: FF FF FF FF FF FF FF FF FF FF FF FF FF FF FF FF       ................
007330: FF FF FF FF FF FF FF FF FF FF FF FF FF FF FF FF       ................
007340: FF FF FF FF FF FF FF FF FF FF FF FF FF FF FF FF       ................
007350: FF FF FF FF FF FF FF FF FF FF FF FF FF FF FF FF       ................
007360: FF FF FF FF FF FF FF FF FF FF FF FF FF FF FF FF       ................
007370: FF FF FF FF FF FF FF FF FF FF FF FF FF FF FF FF       ................
007380: FF FF FF FF FF FF FF FF FF FF FF FF FF FF FF FF       ................
007390: FF FF FF FF FF FF FF FF FF FF FF FF FF FF FF FF       ................
0073A0: FF FF FF FF FF FF FF FF FF FF FF FF FF FF FF FF       ................
0073B0: FF FF FF FF FF FF FF FF FF FF FF FF FF FF FF FF       ................
0073C0: FF FF FF FF FF FF FF FF FF FF FF FF FF FF FF FF       ................
0073D0: FF FF FF FF FF FF FF FF FF FF FF FF FF FF FF FF       ................
0073E0: FF FF FF FF FF FF FF FF FF FF FF FF FF FF FF FF       ................
0073F0: FF FF FF FF FF FF FF FF FF FF FF FF FF FF FF FF       ................
007400: FF FF FF FF FF FF FF FF FF FF FF FF FF FF FF FF       ................
007410: FF FF FF FF FF FF FF FF FF FF FF FF FF FF FF FF       ................
007420: FF FF FF FF FF FF FF FF FF FF FF FF FF FF FF FF       ................
007430: FF FF FF FF FF FF FF FF FF FF FF FF FF FF FF FF       ................
007440: FF FF FF FF FF FF FF FF FF FF FF FF FF FF FF FF       ................
007450: FF FF FF FF FF FF FF FF FF FF FF FF FF FF FF FF       ................
007460: FF FF FF FF FF FF FF FF FF FF FF FF FF FF FF FF       ................
007470: FF FF FF FF FF FF FF FF FF FF FF FF FF FF FF FF       ................
007480: FF FF FF FF FF FF FF FF FF FF FF FF FF FF FF FF       ................
007490: FF FF FF FF FF FF FF FF FF FF FF FF FF FF FF FF       ................
0074A0: FF FF FF FF FF FF FF FF FF FF FF FF FF FF FF FF       ................
0074B0: FF FF FF FF FF FF FF FF FF FF FF FF FF FF FF FF       ................
0074C0: FF FF FF FF FF FF FF FF FF FF FF FF FF FF FF FF       ................
0074D0: FF FF FF FF FF FF FF FF FF FF FF FF FF FF FF FF       ................
0074E0: FF FF FF FF FF FF FF FF FF FF FF FF FF FF FF FF       ................
0074F0: FF FF FF FF FF FF FF FF FF FF FF FF FF FF FF FF       ................
007500: FF FF FF FF FF FF FF FF FF FF FF FF FF FF FF FF       ................
007510: FF FF FF FF FF FF FF FF FF FF FF FF FF FF FF FF       ................
007520: FF FF FF FF FF FF FF FF FF FF FF FF FF FF FF FF       ................
007530: FF FF FF FF FF FF FF FF FF FF FF FF FF FF FF FF       ................
007540: FF FF FF FF FF FF FF FF FF FF FF FF FF FF FF FF       ................
007550: FF FF FF FF FF FF FF FF FF FF FF FF FF FF FF FF       ................
007560: FF FF FF FF FF FF FF FF FF FF FF FF FF FF FF FF       ................
007570: FF FF FF FF FF FF FF FF FF FF FF FF FF FF FF FF       ................
007580: FF FF FF FF FF FF FF FF FF FF FF FF FF FF FF FF       ................
007590: FF FF FF FF FF FF FF FF FF FF FF FF FF FF FF FF       ................
0075A0: FF FF FF FF FF FF FF FF FF FF FF FF FF FF FF FF       ................
0075B0: FF FF FF FF FF FF FF FF FF FF FF FF FF FF FF FF       ................
0075C0: FF FF FF FF FF FF FF FF FF FF FF FF FF FF FF FF       ................
0075D0: FF FF FF FF FF FF FF FF FF FF FF FF FF FF FF FF       ................
0075E0: FF FF FF FF FF FF FF FF FF FF FF FF FF FF FF FF       ................
0075F0: FF FF FF FF FF FF FF FF FF FF FF FF FF FF FF FF       ................
007600: FF FF FF FF FF FF FF FF FF FF FF FF FF FF FF FF       ................
007610: FF FF FF FF FF FF FF FF FF FF FF FF FF FF FF FF       ................
007620: FF FF FF FF FF FF FF FF FF FF FF FF FF FF FF FF       ................
007630: FF FF FF FF FF FF FF FF FF FF FF FF FF FF FF FF       ................
007640: FF FF FF FF FF FF FF FF FF FF FF FF FF FF FF FF       ................
007650: FF FF FF FF FF FF FF FF FF FF FF FF FF FF FF FF       ................
007660: FF FF FF FF FF FF FF FF FF FF FF FF FF FF FF FF       ................
007670: FF FF FF FF FF FF FF FF FF FF FF FF FF FF FF FF       ................
007680: FF FF FF FF FF FF FF FF FF FF FF FF FF FF FF FF       ................
007690: FF FF FF FF FF FF FF FF FF FF FF FF FF FF FF FF       ................
0076A0: FF FF FF FF FF FF FF FF FF FF FF FF FF FF FF FF       ................
0076B0: FF FF FF FF FF FF FF FF FF FF FF FF FF FF FF FF       ................
0076C0: FF FF FF FF FF FF FF FF FF FF FF FF FF FF FF FF       ................
0076D0: FF FF FF FF FF FF FF FF FF FF FF FF FF FF FF FF       ................
0076E0: FF FF FF FF FF FF FF FF FF FF FF FF FF FF FF FF       ................
0076F0: FF FF FF FF FF FF FF FF FF FF FF FF FF FF FF FF       ................
007700: FF FF FF FF FF FF FF FF FF FF FF FF FF FF FF FF       ................
007710: FF FF FF FF FF FF FF FF FF FF FF FF FF FF FF FF       ................
007720: FF FF FF FF FF FF FF FF FF FF FF FF FF FF FF FF       ................
007730: FF FF FF FF FF FF FF FF FF FF FF FF FF FF FF FF       ................
007740: FF FF FF FF FF FF FF FF FF FF FF FF FF FF FF FF       ................
007750: FF FF FF FF FF FF FF FF FF FF FF FF FF FF FF FF       ................
007760: FF FF FF FF FF FF FF FF FF FF FF FF FF FF FF FF       ................
007770: FF FF FF FF FF FF FF FF FF FF FF FF FF FF FF FF       ................
007780: FF FF FF FF FF FF FF FF FF FF FF FF FF FF FF FF       ................
007790: FF FF FF FF FF FF FF FF FF FF FF FF FF FF FF FF       ................
0077A0: FF FF FF FF FF FF FF FF FF FF FF FF FF FF FF FF       ................
0077B0: FF FF FF FF FF FF FF FF FF FF FF FF FF FF FF FF       ................
0077C0: FF FF FF FF FF FF FF FF FF FF FF FF FF FF FF FF       ................
0077D0: FF FF FF FF FF FF FF FF FF FF FF FF FF FF FF FF       ................
0077E0: FF FF FF FF FF FF FF FF FF FF FF FF FF FF FF FF       ................
0077F0: FF FF FF FF FF FF FF FF FF FF FF FF FF FF FF FF       ................
007800: FF FF FF FF FF FF FF FF FF FF FF FF FF FF FF FF       ................
007810: FF FF FF FF FF FF FF FF FF FF FF FF FF FF FF FF       ................
007820: FF FF FF FF FF FF FF FF FF FF FF FF FF FF FF FF       ................
007830: FF FF FF FF FF FF FF FF FF FF FF FF FF FF FF FF       ................
007840: FF FF FF FF FF FF FF FF FF FF FF FF FF FF FF FF       ................
007850: FF FF FF FF FF FF FF FF FF FF FF FF FF FF FF FF       ................
007860: FF FF FF FF FF FF FF FF FF FF FF FF FF FF FF FF       ................
007870: FF FF FF FF FF FF FF FF FF FF FF FF FF FF FF FF       ................
007880: FF FF FF FF FF FF FF FF FF FF FF FF FF FF FF FF       ................
007890: FF FF FF FF FF FF FF FF FF FF FF FF FF FF FF FF       ................
0078A0: FF FF FF FF FF FF FF FF FF FF FF FF FF FF FF FF       ................
0078B0: FF FF FF FF FF FF FF FF FF FF FF FF FF FF FF FF       ................
0078C0: FF FF FF FF FF FF FF FF FF FF FF FF FF FF FF FF       ................
0078D0: FF FF FF FF FF FF FF FF FF FF FF FF FF FF FF FF       ................
0078E0: FF FF FF FF FF FF FF FF FF FF FF FF FF FF FF FF       ................
0078F0: FF FF FF FF FF FF FF FF FF FF FF FF FF FF FF FF       ................
007900: FF FF FF FF FF FF FF FF FF FF FF FF FF FF FF FF       ................
007910: FF FF FF FF FF FF FF FF FF FF FF FF FF FF FF FF       ................
007920: FF FF FF FF FF FF FF FF FF FF FF FF FF FF FF FF       ................
007930: FF FF FF FF FF FF FF FF FF FF FF FF FF FF FF FF       ................
007940: FF FF FF FF FF FF FF FF FF FF FF FF FF FF FF FF       ................
007950: FF FF FF FF FF FF FF FF FF FF FF FF FF FF FF FF       ................
007960: FF FF FF FF FF FF FF FF FF FF FF FF FF FF FF FF       ................
007970: FF FF FF FF FF FF FF FF FF FF FF FF FF FF FF FF       ................
007980: FF FF FF FF FF FF FF FF FF FF FF FF FF FF FF FF       ................
007990: FF FF FF FF FF FF FF FF FF FF FF FF FF FF FF FF       ................
0079A0: FF FF FF FF FF FF FF FF FF FF FF FF FF FF FF FF       ................
0079B0: FF FF FF FF FF FF FF FF FF FF FF FF FF FF FF FF       ................
0079C0: FF FF FF FF FF FF FF FF FF FF FF FF FF FF FF FF       ................
0079D0: FF FF FF FF FF FF FF FF FF FF FF FF FF FF FF FF       ................
0079E0: FF FF FF FF FF FF FF FF FF FF FF FF FF FF FF FF       ................
0079F0: FF FF FF FF FF FF FF FF FF FF FF FF FF FF FF FF       ................
007A00: FF FF FF FF FF FF FF FF FF FF FF FF FF FF FF FF       ................
007A10: FF FF FF FF FF FF FF FF FF FF FF FF FF FF FF FF       ................
007A20: FF FF FF FF FF FF FF FF FF FF FF FF FF FF FF FF       ................
007A30: FF FF FF FF FF FF FF FF FF FF FF FF FF FF FF FF       ................
007A40: FF FF FF FF FF FF FF FF FF FF FF FF FF FF FF FF       ................
007A50: FF FF FF FF FF FF FF FF FF FF FF FF FF FF FF FF       ................
007A60: FF FF FF FF FF FF FF FF FF FF FF FF FF FF FF FF       ................
007A70: FF FF FF FF FF FF FF FF FF FF FF FF FF FF FF FF       ................
007A80: FF FF FF FF FF FF FF FF FF FF FF FF FF FF FF FF       ................
007A90: FF FF FF FF FF FF FF FF FF FF FF FF FF FF FF FF       ................
007AA0: FF FF FF FF FF FF FF FF FF FF FF FF FF FF FF FF       ................
007AB0: FF FF FF FF FF FF FF FF FF FF FF FF FF FF FF FF       ................
007AC0: FF FF FF FF FF FF FF FF FF FF FF FF FF FF FF FF       ................
007AD0: FF FF FF FF FF FF FF FF FF FF FF FF FF FF FF FF       ................
007AE0: FF FF FF FF FF FF FF FF FF FF FF FF FF FF FF FF       ................
007AF0: FF FF FF FF FF FF FF FF FF FF FF FF FF FF FF FF       ................
007B00: FF FF FF FF FF FF FF FF FF FF FF FF FF FF FF FF       ................
007B10: FF FF FF FF FF FF FF FF FF FF FF FF FF FF FF FF       ................
007B20: FF FF FF FF FF FF FF FF FF FF FF FF FF FF FF FF       ................
007B30: FF FF FF FF FF FF FF FF FF FF FF FF FF FF FF FF       ................
007B40: FF FF FF FF FF FF FF FF FF FF FF FF FF FF FF FF       ................
007B50: FF FF FF FF FF FF FF FF FF FF FF FF FF FF FF FF       ................
007B60: FF FF FF FF FF FF FF FF FF FF FF FF FF FF FF FF       ................
007B70: FF FF FF FF FF FF FF FF FF FF FF FF FF FF FF FF       ................
007B80: FF FF FF FF FF FF FF FF FF FF FF FF FF FF FF FF       ................
007B90: FF FF FF FF FF FF FF FF FF FF FF FF FF FF FF FF       ................
007BA0: FF FF FF FF FF FF FF FF FF FF FF FF FF FF FF FF       ................
007BB0: FF FF FF FF FF FF FF FF FF FF FF FF FF FF FF FF       ................
007BC0: FF FF FF FF FF FF FF FF FF FF FF FF FF FF FF FF       ................
007BD0: FF FF FF FF FF FF FF FF FF FF FF FF FF FF FF FF       ................
007BE0: FF FF FF FF FF FF FF FF FF FF FF FF FF FF FF FF       ................
007BF0: FF FF FF FF FF FF FF FF FF FF FF FF FF FF FF FF       ................
007C00: FF FF FF FF FF FF FF FF FF FF FF FF FF FF FF FF       ................
007C10: FF FF FF FF FF FF FF FF FF FF FF FF FF FF FF FF       ................
007C20: FF FF FF FF FF FF FF FF FF FF FF FF FF FF FF FF       ................
007C30: FF FF FF FF FF FF FF FF FF FF FF FF FF FF FF FF       ................
007C40: FF FF FF FF FF FF FF FF FF FF FF FF FF FF FF FF       ................
007C50: FF FF FF FF FF FF FF FF FF FF FF FF FF FF FF FF       ................
007C60: FF FF FF FF FF FF FF FF FF FF FF FF FF FF FF FF       ................
007C70: FF FF FF FF FF FF FF FF FF FF FF FF FF FF FF FF       ................
007C80: FF FF FF FF FF FF FF FF FF FF FF FF FF FF FF FF       ................
007C90: FF FF FF FF FF FF FF FF FF FF FF FF FF FF FF FF       ................
007CA0: FF FF FF FF FF FF FF FF FF FF FF FF FF FF FF FF       ................
007CB0: FF FF FF FF FF FF FF FF FF FF FF FF FF FF FF FF       ................
007CC0: FF FF FF FF FF FF FF FF FF FF FF FF FF FF FF FF       ................
007CD0: FF FF FF FF FF FF FF FF FF FF FF FF FF FF FF FF       ................
007CE0: FF FF FF FF FF FF FF FF FF FF FF FF FF FF FF FF       ................
007CF0: FF FF FF FF FF FF FF FF FF FF FF FF FF FF FF FF       ................
007D00: FF FF FF FF FF FF FF FF FF FF FF FF FF FF FF FF       ................
007D10: FF FF FF FF FF FF FF FF FF FF FF FF FF FF FF FF       ................
007D20: FF FF FF FF FF FF FF FF FF FF FF FF FF FF FF FF       ................
007D30: FF FF FF FF FF FF FF FF FF FF FF FF FF FF FF FF       ................
007D40: FF FF FF FF FF FF FF FF FF FF FF FF FF FF FF FF       ................
007D50: FF FF FF FF FF FF FF FF FF FF FF FF FF FF FF FF       ................
007D60: FF FF FF FF FF FF FF FF FF FF FF FF FF FF FF FF       ................
007D70: FF FF FF FF FF FF FF FF FF FF FF FF FF FF FF FF       ................
007D80: FF FF FF FF FF FF FF FF FF FF FF FF FF FF FF FF       ................
007D90: FF FF FF FF FF FF FF FF FF FF FF FF FF FF FF FF       ................
007DA0: FF FF FF FF FF FF FF FF FF FF FF FF FF FF FF FF       ................
007DB0: FF FF FF FF FF FF FF FF FF FF FF FF FF FF FF FF       ................
007DC0: FF FF FF FF FF FF FF FF FF FF FF FF FF FF FF FF       ................
007DD0: FF FF FF FF FF FF FF FF FF FF FF FF FF FF FF FF       ................
007DE0: FF FF FF FF FF FF FF FF FF FF FF FF FF FF FF FF       ................
007DF0: FF FF FF FF FF FF FF FF FF FF FF FF FF FF FF FF       ................
007E00: FF FF FF FF FF FF FF FF FF FF FF FF FF FF FF FF       ................
007E10: FF FF FF FF FF FF FF FF FF FF FF FF FF FF FF FF       ................
007E20: FF FF FF FF FF FF FF FF FF FF FF FF FF FF FF FF       ................
007E30: FF FF FF FF FF FF FF FF FF FF FF FF FF FF FF FF       ................
007E40: FF FF FF FF FF FF FF FF FF FF FF FF FF FF FF FF       ................
007E50: FF FF FF FF FF FF FF FF FF FF FF FF FF FF FF FF       ................
007E60: FF FF FF FF FF FF FF FF FF FF FF FF FF FF FF FF       ................
007E70: FF FF FF FF FF FF FF FF FF FF FF FF FF FF FF FF       ................
007E80: FF FF FF FF FF FF FF FF FF FF FF FF FF FF FF FF       ................
007E90: FF FF FF FF FF FF FF FF FF FF FF FF FF FF FF FF       ................
007EA0: FF FF FF FF FF FF FF FF FF FF FF FF FF FF FF FF       ................
007EB0: FF FF FF FF FF FF FF FF FF FF FF FF FF FF FF FF       ................
007EC0: FF FF FF FF FF FF FF FF FF FF FF FF FF FF FF FF       ................
007ED0: FF FF FF FF FF FF FF FF FF FF FF FF FF FF FF FF       ................
007EE0: FF FF FF FF FF FF FF FF FF FF FF FF FF FF FF FF       ................
007EF0: FF FF FF FF FF FF FF FF FF FF FF FF FF FF FF FF       ................
007F00: FF FF FF FF FF FF FF FF FF FF FF FF FF FF FF FF       ................
007F10: FF FF FF FF FF FF FF FF FF FF FF FF FF FF FF FF       ................
007F20: FF FF FF FF FF FF FF FF FF FF FF FF FF FF FF FF       ................
007F30: FF FF FF FF FF FF FF FF FF FF FF FF FF FF FF FF       ................
007F40: FF FF FF FF FF FF FF FF FF FF FF FF FF FF FF FF       ................
007F50: FF FF FF FF FF FF FF FF FF FF FF FF FF FF FF FF       ................
007F60: FF FF FF FF FF FF FF FF FF FF FF FF FF FF FF FF       ................
007F70: FF FF FF FF FF FF FF FF FF FF FF FF FF FF FF FF       ................
007F80: FF FF FF FF FF FF FF FF FF FF FF FF FF FF FF FF       ................
007F90: FF FF FF FF FF FF FF FF FF FF FF FF FF FF FF FF       ................
007FA0: FF FF FF FF FF FF FF FF FF FF FF FF FF FF FF FF       ................
007FB0: FF FF FF FF FF FF FF FF FF FF FF FF FF FF FF FF       ................
007FC0: FF FF FF FF FF FF FF FF FF FF FF FF FF FF FF FF       ................
007FD0: FF FF FF FF FF FF FF FF FF FF FF FF FF FF FF FF       ................
007FE0: FF FF FF FF FF FF FF FF FF FF FF FF FF FF FF FF       ................
007FF0: FF FF FF FF FF FF FF FF FF FF FF FF FF FF FF FF       ................
008000: FF FF FF FF FF FF FF FF FF FF FF FF FF FF FF FF       ................
008010: FF FF FF FF FF FF FF FF FF FF FF FF FF FF FF FF       ................
008020: FF FF FF FF FF FF FF FF FF FF FF FF FF FF FF FF       ................
008030: FF FF FF FF FF FF FF FF FF FF FF FF FF FF FF FF       ................
008040: FF FF FF FF FF FF FF FF FF FF FF FF FF FF FF FF       ................
008050: FF FF FF FF FF FF FF FF FF FF FF FF FF FF FF FF       ................
008060: FF FF FF FF FF FF FF FF FF FF FF FF FF FF FF FF       ................
008070: FF FF FF FF FF FF FF FF FF FF FF FF FF FF FF FF       ................
008080: FF FF FF FF FF FF FF FF FF FF FF FF FF FF FF FF       ................
008090: FF FF FF FF FF FF FF FF FF FF FF FF FF FF FF FF       ................
0080A0: FF FF FF FF FF FF FF FF FF FF FF FF FF FF FF FF       ................
0080B0: FF FF FF FF FF FF FF FF FF FF FF FF FF FF FF FF       ................
0080C0: FF FF FF FF FF FF FF FF FF FF FF FF FF FF FF FF       ................
0080D0: FF FF FF FF FF FF FF FF FF FF FF FF FF FF FF FF       ................
0080E0: FF FF FF FF FF FF FF FF FF FF FF FF FF FF FF FF       ................
0080F0: FF FF FF FF FF FF FF FF FF FF FF FF FF FF FF FF       ................
008100: FF FF FF FF FF FF FF FF FF FF FF FF FF FF FF FF       ................
008110: FF FF FF FF FF FF FF FF FF FF FF FF FF FF FF FF       ................
008120: FF FF FF FF FF FF FF FF FF FF FF FF FF FF FF FF       ................
008130: FF FF FF FF FF FF FF FF FF FF FF FF FF FF FF FF       ................
008140: FF FF FF FF FF FF FF FF FF FF FF FF FF FF FF FF       ................
008150: FF FF FF FF FF FF FF FF FF FF FF FF FF FF FF FF       ................
008160: FF FF FF FF FF FF FF FF FF FF FF FF FF FF FF FF       ................
008170: FF FF FF FF FF FF FF FF FF FF FF FF FF FF FF FF       ................
008180: FF FF FF FF FF FF FF FF FF FF FF FF FF FF FF FF       ................
008190: FF FF FF FF FF FF FF FF FF FF FF FF FF FF FF FF       ................
0081A0: FF FF FF FF FF FF FF FF FF FF FF FF FF FF FF FF       ................
0081B0: FF FF FF FF FF FF FF FF FF FF FF FF FF FF FF FF       ................
0081C0: FF FF FF FF FF FF FF FF FF FF FF FF FF FF FF FF       ................
0081D0: FF FF FF FF FF FF FF FF FF FF FF FF FF FF FF FF       ................
0081E0: FF FF FF FF FF FF FF FF FF FF FF FF FF FF FF FF       ................
0081F0: FF FF FF FF FF FF FF FF FF FF FF FF FF FF FF FF       ................
008200: FF FF FF FF FF FF FF FF FF FF FF FF FF FF FF FF       ................
008210: FF FF FF FF FF FF FF FF FF FF FF FF FF FF FF FF       ................
008220: FF FF FF FF FF FF FF FF FF FF FF FF FF FF FF FF       ................
008230: FF FF FF FF FF FF FF FF FF FF FF FF FF FF FF FF       ................
008240: FF FF FF FF FF FF FF FF FF FF FF FF FF FF FF FF       ................
008250: FF FF FF FF FF FF FF FF FF FF FF FF FF FF FF FF       ................
008260: FF FF FF FF FF FF FF FF FF FF FF FF FF FF FF FF       ................
008270: FF FF FF FF FF FF FF FF FF FF FF FF FF FF FF FF       ................
008280: FF FF FF FF FF FF FF FF FF FF FF FF FF FF FF FF       ................
008290: FF FF FF FF FF FF FF FF FF FF FF FF FF FF FF FF       ................
0082A0: FF FF FF FF FF FF FF FF FF FF FF FF FF FF FF FF       ................
0082B0: FF FF FF FF FF FF FF FF FF FF FF FF FF FF FF FF       ................
0082C0: FF FF FF FF FF FF FF FF FF FF FF FF FF FF FF FF       ................
0082D0: FF FF FF FF FF FF FF FF FF FF FF FF FF FF FF FF       ................
0082E0: FF FF FF FF FF FF FF FF FF FF FF FF FF FF FF FF       ................
0082F0: FF FF FF FF FF FF FF FF FF FF FF FF FF FF FF FF       ................
008300: FF FF FF FF FF FF FF FF FF FF FF FF FF FF FF FF       ................
008310: FF FF FF FF FF FF FF FF FF FF FF FF FF FF FF FF       ................
008320: FF FF FF FF FF FF FF FF FF FF FF FF FF FF FF FF       ................
008330: FF FF FF FF FF FF FF FF FF FF FF FF FF FF FF FF       ................
008340: FF FF FF FF FF FF FF FF FF FF FF FF FF FF FF FF       ................
008350: FF FF FF FF FF FF FF FF FF FF FF FF FF FF FF FF       ................
008360: FF FF FF FF FF FF FF FF FF FF FF FF FF FF FF FF       ................
008370: FF FF FF FF FF FF FF FF FF FF FF FF FF FF FF FF       ................
008380: FF FF FF FF FF FF FF FF FF FF FF FF FF FF FF FF       ................
008390: FF FF FF FF FF FF FF FF FF FF FF FF FF FF FF FF       ................
0083A0: FF FF FF FF FF FF FF FF FF FF FF FF FF FF FF FF       ................
0083B0: FF FF FF FF FF FF FF FF FF FF FF FF FF FF FF FF       ................
0083C0: FF FF FF FF FF FF FF FF FF FF FF FF FF FF FF FF       ................
0083D0: FF FF FF FF FF FF FF FF FF FF FF FF FF FF FF FF       ................
0083E0: FF FF FF FF FF FF FF FF FF FF FF FF FF FF FF FF       ................
0083F0: FF FF FF FF FF FF FF FF FF FF FF FF FF FF FF FF       ................
008400: FF FF FF FF FF FF FF FF FF FF FF FF FF FF FF FF       ................
008410: FF FF FF FF FF FF FF FF FF FF FF FF FF FF FF FF       ................
008420: FF FF FF FF FF FF FF FF FF FF FF FF FF FF FF FF       ................
008430: FF FF FF FF FF FF FF FF FF FF FF FF FF FF FF FF       ................
008440: FF FF FF FF FF FF FF FF FF FF FF FF FF FF FF FF       ................
008450: FF FF FF FF FF FF FF FF FF FF FF FF FF FF FF FF       ................
008460: FF FF FF FF FF FF FF FF FF FF FF FF FF FF FF FF       ................
008470: FF FF FF FF FF FF FF FF FF FF FF FF FF FF FF FF       ................
008480: FF FF FF FF FF FF FF FF FF FF FF FF FF FF FF FF       ................
008490: FF FF FF FF FF FF FF FF FF FF FF FF FF FF FF FF       ................
0084A0: FF FF FF FF FF FF FF FF FF FF FF FF FF FF FF FF       ................
0084B0: FF FF FF FF FF FF FF FF FF FF FF FF FF FF FF FF       ................
0084C0: FF FF FF FF FF FF FF FF FF FF FF FF FF FF FF FF       ................
0084D0: FF FF FF FF FF FF FF FF FF FF FF FF FF FF FF FF       ................
0084E0: FF FF FF FF FF FF FF FF FF FF FF FF FF FF FF FF       ................
0084F0: FF FF FF FF FF FF FF FF FF FF FF FF FF FF FF FF       ................
008500: FF FF FF FF FF FF FF FF FF FF FF FF FF FF FF FF       ................
008510: FF FF FF FF FF FF FF FF FF FF FF FF FF FF FF FF       ................
008520: FF FF FF FF FF FF FF FF FF FF FF FF FF FF FF FF       ................
008530: FF FF FF FF FF FF FF FF FF FF FF FF FF FF FF FF       ................
008540: FF FF FF FF FF FF FF FF FF FF FF FF FF FF FF FF       ................
008550: FF FF FF FF FF FF FF FF FF FF FF FF FF FF FF FF       ................
008560: FF FF FF FF FF FF FF FF FF FF FF FF FF FF FF FF       ................
008570: FF FF FF FF FF FF FF FF FF FF FF FF FF FF FF FF       ................
008580: FF FF FF FF FF FF FF FF FF FF FF FF FF FF FF FF       ................
008590: FF FF FF FF FF FF FF FF FF FF FF FF FF FF FF FF       ................
0085A0: FF FF FF FF FF FF FF FF FF FF FF FF FF FF FF FF       ................
0085B0: FF FF FF FF FF FF FF FF FF FF FF FF FF FF FF FF       ................
0085C0: FF FF FF FF FF FF FF FF FF FF FF FF FF FF FF FF       ................
0085D0: FF FF FF FF FF FF FF FF FF FF FF FF FF FF FF FF       ................
0085E0: FF FF FF FF FF FF FF FF FF FF FF FF FF FF FF FF       ................
0085F0: FF FF FF FF FF FF FF FF FF FF FF FF FF FF FF FF       ................
008600: FF FF FF FF FF FF FF FF FF FF FF FF FF FF FF FF       ................
008610: FF FF FF FF FF FF FF FF FF FF FF FF FF FF FF FF       ................
008620: FF FF FF FF FF FF FF FF FF FF FF FF FF FF FF FF       ................
008630: FF FF FF FF FF FF FF FF FF FF FF FF FF FF FF FF       ................
008640: FF FF FF FF FF FF FF FF FF FF FF FF FF FF FF FF       ................
008650: FF FF FF FF FF FF FF FF FF FF FF FF FF FF FF FF       ................
008660: FF FF FF FF FF FF FF FF FF FF FF FF FF FF FF FF       ................
008670: FF FF FF FF FF FF FF FF FF FF FF FF FF FF FF FF       ................
008680: FF FF FF FF FF FF FF FF FF FF FF FF FF FF FF FF       ................
008690: FF FF FF FF FF FF FF FF FF FF FF FF FF FF FF FF       ................
0086A0: FF FF FF FF FF FF FF FF FF FF FF FF FF FF FF FF       ................
0086B0: FF FF FF FF FF FF FF FF FF FF FF FF FF FF FF FF       ................
0086C0: FF FF FF FF FF FF FF FF FF FF FF FF FF FF FF FF       ................
0086D0: FF FF FF FF FF FF FF FF FF FF FF FF FF FF FF FF       ................
0086E0: FF FF FF FF FF FF FF FF FF FF FF FF FF FF FF FF       ................
0086F0: FF FF FF FF FF FF FF FF FF FF FF FF FF FF FF FF       ................
008700: FF FF FF FF FF FF FF FF FF FF FF FF FF FF FF FF       ................
008710: FF FF FF FF FF FF FF FF FF FF FF FF FF FF FF FF       ................
008720: FF FF FF FF FF FF FF FF FF FF FF FF FF FF FF FF       ................
008730: FF FF FF FF FF FF FF FF FF FF FF FF FF FF FF FF       ................
008740: FF FF FF FF FF FF FF FF FF FF FF FF FF FF FF FF       ................
008750: FF FF FF FF FF FF FF FF FF FF FF FF FF FF FF FF       ................
008760: FF FF FF FF FF FF FF FF FF FF FF FF FF FF FF FF       ................
008770: FF FF FF FF FF FF FF FF FF FF FF FF FF FF FF FF       ................
008780: FF FF FF FF FF FF FF FF FF FF FF FF FF FF FF FF       ................
008790: FF FF FF FF FF FF FF FF FF FF FF FF FF FF FF FF       ................
0087A0: FF FF FF FF FF FF FF FF FF FF FF FF FF FF FF FF       ................
0087B0: FF FF FF FF FF FF FF FF FF FF FF FF FF FF FF FF       ................
0087C0: FF FF FF FF FF FF FF FF FF FF FF FF FF FF FF FF       ................
0087D0: FF FF FF FF FF FF FF FF FF FF FF FF FF FF FF FF       ................
0087E0: FF FF FF FF FF FF FF FF FF FF FF FF FF FF FF FF       ................
0087F0: FF FF FF FF FF FF FF FF FF FF FF FF FF FF FF FF       ................
008800: FF FF FF FF FF FF FF FF FF FF FF FF FF FF FF FF       ................
008810: FF FF FF FF FF FF FF FF FF FF FF FF FF FF FF FF       ................
008820: FF FF FF FF FF FF FF FF FF FF FF FF FF FF FF FF       ................
008830: FF FF FF FF FF FF FF FF FF FF FF FF FF FF FF FF       ................
008840: FF FF FF FF FF FF FF FF FF FF FF FF FF FF FF FF       ................
008850: FF FF FF FF FF FF FF FF FF FF FF FF FF FF FF FF       ................
008860: FF FF FF FF FF FF FF FF FF FF FF FF FF FF FF FF       ................
008870: FF FF FF FF FF FF FF FF FF FF FF FF FF FF FF FF       ................
008880: FF FF FF FF FF FF FF FF FF FF FF FF FF FF FF FF       ................
008890: FF FF FF FF FF FF FF FF FF FF FF FF FF FF FF FF       ................
0088A0: FF FF FF FF FF FF FF FF FF FF FF FF FF FF FF FF       ................
0088B0: FF FF FF FF FF FF FF FF FF FF FF FF FF FF FF FF       ................
0088C0: FF FF FF FF FF FF FF FF FF FF FF FF FF FF FF FF       ................
0088D0: FF FF FF FF FF FF FF FF FF FF FF FF FF FF FF FF       ................
0088E0: FF FF FF FF FF FF FF FF FF FF FF FF FF FF FF FF       ................
0088F0: FF FF FF FF FF FF FF FF FF FF FF FF FF FF FF FF       ................
008900: FF FF FF FF FF FF FF FF FF FF FF FF FF FF FF FF       ................
008910: FF FF FF FF FF FF FF FF FF FF FF FF FF FF FF FF       ................
008920: FF FF FF FF FF FF FF FF FF FF FF FF FF FF FF FF       ................
008930: FF FF FF FF FF FF FF FF FF FF FF FF FF FF FF FF       ................
008940: FF FF FF FF FF FF FF FF FF FF FF FF FF FF FF FF       ................
008950: FF FF FF FF FF FF FF FF FF FF FF FF FF FF FF FF       ................
008960: FF FF FF FF FF FF FF FF FF FF FF FF FF FF FF FF       ................
008970: FF FF FF FF FF FF FF FF FF FF FF FF FF FF FF FF       ................
008980: FF FF FF FF FF FF FF FF FF FF FF FF FF FF FF FF       ................
008990: FF FF FF FF FF FF FF FF FF FF FF FF FF FF FF FF       ................
0089A0: FF FF FF FF FF FF FF FF FF FF FF FF FF FF FF FF       ................
0089B0: FF FF FF FF FF FF FF FF FF FF FF FF FF FF FF FF       ................
0089C0: FF FF FF FF FF FF FF FF FF FF FF FF FF FF FF FF       ................
0089D0: FF FF FF FF FF FF FF FF FF FF FF FF FF FF FF FF       ................
0089E0: FF FF FF FF FF FF FF FF FF FF FF FF FF FF FF FF       ................
0089F0: FF FF FF FF FF FF FF FF FF FF FF FF FF FF FF FF       ................
008A00: FF FF FF FF FF FF FF FF FF FF FF FF FF FF FF FF       ................
008A10: FF FF FF FF FF FF FF FF FF FF FF FF FF FF FF FF       ................
008A20: FF FF FF FF FF FF FF FF FF FF FF FF FF FF FF FF       ................
008A30: FF FF FF FF FF FF FF FF FF FF FF FF FF FF FF FF       ................
008A40: FF FF FF FF FF FF FF FF FF FF FF FF FF FF FF FF       ................
008A50: FF FF FF FF FF FF FF FF FF FF FF FF FF FF FF FF       ................
008A60: FF FF FF FF FF FF FF FF FF FF FF FF FF FF FF FF       ................
008A70: FF FF FF FF FF FF FF FF FF FF FF FF FF FF FF FF       ................
008A80: FF FF FF FF FF FF FF FF FF FF FF FF FF FF FF FF       ................
008A90: FF FF FF FF FF FF FF FF FF FF FF FF FF FF FF FF       ................
008AA0: FF FF FF FF FF FF FF FF FF FF FF FF FF FF FF FF       ................
008AB0: FF FF FF FF FF FF FF FF FF FF FF FF FF FF FF FF       ................
008AC0: FF FF FF FF FF FF FF FF FF FF FF FF FF FF FF FF       ................
008AD0: FF FF FF FF FF FF FF FF FF FF FF FF FF FF FF FF       ................
008AE0: FF FF FF FF FF FF FF FF FF FF FF FF FF FF FF FF       ................
008AF0: FF FF FF FF FF FF FF FF FF FF FF FF FF FF FF FF       ................
008B00: FF FF FF FF FF FF FF FF FF FF FF FF FF FF FF FF       ................
008B10: FF FF FF FF FF FF FF FF FF FF FF FF FF FF FF FF       ................
008B20: FF FF FF FF FF FF FF FF FF FF FF FF FF FF FF FF       ................
008B30: FF FF FF FF FF FF FF FF FF FF FF FF FF FF FF FF       ................
008B40: FF FF FF FF FF FF FF FF FF FF FF FF FF FF FF FF       ................
008B50: FF FF FF FF FF FF FF FF FF FF FF FF FF FF FF FF       ................
008B60: FF FF FF FF FF FF FF FF FF FF FF FF FF FF FF FF       ................
008B70: FF FF FF FF FF FF FF FF FF FF FF FF FF FF FF FF       ................
008B80: FF FF FF FF FF FF FF FF FF FF FF FF FF FF FF FF       ................
008B90: FF FF FF FF FF FF FF FF FF FF FF FF FF FF FF FF       ................
008BA0: FF FF FF FF FF FF FF FF FF FF FF FF FF FF FF FF       ................
008BB0: FF FF FF FF FF FF FF FF FF FF FF FF FF FF FF FF       ................
008BC0: FF FF FF FF FF FF FF FF FF FF FF FF FF FF FF FF       ................
008BD0: FF FF FF FF FF FF FF FF FF FF FF FF FF FF FF FF       ................
008BE0: FF FF FF FF FF FF FF FF FF FF FF FF FF FF FF FF       ................
008BF0: FF FF FF FF FF FF FF FF FF FF FF FF FF FF FF FF       ................
008C00: FF FF FF FF FF FF FF FF FF FF FF FF FF FF FF FF       ................
008C10: FF FF FF FF FF FF FF FF FF FF FF FF FF FF FF FF       ................
008C20: FF FF FF FF FF FF FF FF FF FF FF FF FF FF FF FF       ................
008C30: FF FF FF FF FF FF FF FF FF FF FF FF FF FF FF FF       ................
008C40: FF FF FF FF FF FF FF FF FF FF FF FF FF FF FF FF       ................
008C50: FF FF FF FF FF FF FF FF FF FF FF FF FF FF FF FF       ................
008C60: FF FF FF FF FF FF FF FF FF FF FF FF FF FF FF FF       ................
008C70: FF FF FF FF FF FF FF FF FF FF FF FF FF FF FF FF       ................
008C80: FF FF FF FF FF FF FF FF FF FF FF FF FF FF FF FF       ................
008C90: FF FF FF FF FF FF FF FF FF FF FF FF FF FF FF FF       ................
008CA0: FF FF FF FF FF FF FF FF FF FF FF FF FF FF FF FF       ................
008CB0: FF FF FF FF FF FF FF FF FF FF FF FF FF FF FF FF       ................
008CC0: FF FF FF FF FF FF FF FF FF FF FF FF FF FF FF FF       ................
008CD0: FF FF FF FF FF FF FF FF FF FF FF FF FF FF FF FF       ................
008CE0: FF FF FF FF FF FF FF FF FF FF FF FF FF FF FF FF       ................
008CF0: FF FF FF FF FF FF FF FF FF FF FF FF FF FF FF FF       ................
008D00: FF FF FF FF FF FF FF FF FF FF FF FF FF FF FF FF       ................
008D10: FF FF FF FF FF FF FF FF FF FF FF FF FF FF FF FF       ................
008D20: FF FF FF FF FF FF FF FF FF FF FF FF FF FF FF FF       ................
008D30: FF FF FF FF FF FF FF FF FF FF FF FF FF FF FF FF       ................
008D40: FF FF FF FF FF FF FF FF FF FF FF FF FF FF FF FF       ................
008D50: FF FF FF FF FF FF FF FF FF FF FF FF FF FF FF FF       ................
008D60: FF FF FF FF FF FF FF FF FF FF FF FF FF FF FF FF       ................
008D70: FF FF FF FF FF FF FF FF FF FF FF FF FF FF FF FF       ................
008D80: FF FF FF FF FF FF FF FF FF FF FF FF FF FF FF FF       ................
008D90: FF FF FF FF FF FF FF FF FF FF FF FF FF FF FF FF       ................
008DA0: FF FF FF FF FF FF FF FF FF FF FF FF FF FF FF FF       ................
008DB0: FF FF FF FF FF FF FF FF FF FF FF FF FF FF FF FF       ................
008DC0: FF FF FF FF FF FF FF FF FF FF FF FF FF FF FF FF       ................
008DD0: FF FF FF FF FF FF FF FF FF FF FF FF FF FF FF FF       ................
008DE0: FF FF FF FF FF FF FF FF FF FF FF FF FF FF FF FF       ................
008DF0: FF FF FF FF FF FF FF FF FF FF FF FF FF FF FF FF       ................
008E00: FF FF FF FF FF FF FF FF FF FF FF FF FF FF FF FF       ................
008E10: FF FF FF FF FF FF FF FF FF FF FF FF FF FF FF FF       ................
008E20: FF FF FF FF FF FF FF FF FF FF FF FF FF FF FF FF       ................
008E30: FF FF FF FF FF FF FF FF FF FF FF FF FF FF FF FF       ................
008E40: FF FF FF FF FF FF FF FF FF FF FF FF FF FF FF FF       ................
008E50: FF FF FF FF FF FF FF FF FF FF FF FF FF FF FF FF       ................
008E60: FF FF FF FF FF FF FF FF FF FF FF FF FF FF FF FF       ................
008E70: FF FF FF FF FF FF FF FF FF FF FF FF FF FF FF FF       ................
008E80: FF FF FF FF FF FF FF FF FF FF FF FF FF FF FF FF       ................
008E90: FF FF FF FF FF FF FF FF FF FF FF FF FF FF FF FF       ................
008EA0: FF FF FF FF FF FF FF FF FF FF FF FF FF FF FF FF       ................
008EB0: FF FF FF FF FF FF FF FF FF FF FF FF FF FF FF FF       ................
008EC0: FF FF FF FF FF FF FF FF FF FF FF FF FF FF FF FF       ................
008ED0: FF FF FF FF FF FF FF FF FF FF FF FF FF FF FF FF       ................
008EE0: FF FF FF FF FF FF FF FF FF FF FF FF FF FF FF FF       ................
008EF0: FF FF FF FF FF FF FF FF FF FF FF FF FF FF FF FF       ................
008F00: FF FF FF FF FF FF FF FF FF FF FF FF FF FF FF FF       ................
008F10: FF FF FF FF FF FF FF FF FF FF FF FF FF FF FF FF       ................
008F20: FF FF FF FF FF FF FF FF FF FF FF FF FF FF FF FF       ................
008F30: FF FF FF FF FF FF FF FF FF FF FF FF FF FF FF FF       ................
008F40: FF FF FF FF FF FF FF FF FF FF FF FF FF FF FF FF       ................
008F50: FF FF FF FF FF FF FF FF FF FF FF FF FF FF FF FF       ................
008F60: FF FF FF FF FF FF FF FF FF FF FF FF FF FF FF FF       ................
008F70: FF FF FF FF FF FF FF FF FF FF FF FF FF FF FF FF       ................
008F80: FF FF FF FF FF FF FF FF FF FF FF FF FF FF FF FF       ................
008F90: FF FF FF FF FF FF FF FF FF FF FF FF FF FF FF FF       ................
008FA0: FF FF FF FF FF FF FF FF FF FF FF FF FF FF FF FF       ................
008FB0: FF FF FF FF FF FF FF FF FF FF FF FF FF FF FF FF       ................
008FC0: FF FF FF FF FF FF FF FF FF FF FF FF FF FF FF FF       ................
008FD0: FF FF FF FF FF FF FF FF FF FF FF FF FF FF FF FF       ................
008FE0: FF FF FF FF FF FF FF FF FF FF FF FF FF FF FF FF       ................
008FF0: FF FF FF FF FF FF FF FF FF FF FF FF FF FF FF FF       ................
009000: FF FF FF FF FF FF FF FF FF FF FF FF FF FF FF FF       ................
009010: FF FF FF FF FF FF FF FF FF FF FF FF FF FF FF FF       ................
009020: FF FF FF FF FF FF FF FF FF FF FF FF FF FF FF FF       ................
009030: FF FF FF FF FF FF FF FF FF FF FF FF FF FF FF FF       ................
009040: FF FF FF FF FF FF FF FF FF FF FF FF FF FF FF FF       ................
009050: FF FF FF FF FF FF FF FF FF FF FF FF FF FF FF FF       ................
009060: FF FF FF FF FF FF FF FF FF FF FF FF FF FF FF FF       ................
009070: FF FF FF FF FF FF FF FF FF FF FF FF FF FF FF FF       ................
009080: FF FF FF FF FF FF FF FF FF FF FF FF FF FF FF FF       ................
009090: FF FF FF FF FF FF FF FF FF FF FF FF FF FF FF FF       ................
0090A0: FF FF FF FF FF FF FF FF FF FF FF FF FF FF FF FF       ................
0090B0: FF FF FF FF FF FF FF FF FF FF FF FF FF FF FF FF       ................
0090C0: FF FF FF FF FF FF FF FF FF FF FF FF FF FF FF FF       ................
0090D0: FF FF FF FF FF FF FF FF FF FF FF FF FF FF FF FF       ................
0090E0: FF FF FF FF FF FF FF FF FF FF FF FF FF FF FF FF       ................
0090F0: FF FF FF FF FF FF FF FF FF FF FF FF FF FF FF FF       ................
009100: FF FF FF FF FF FF FF FF FF FF FF FF FF FF FF FF       ................
009110: FF FF FF FF FF FF FF FF FF FF FF FF FF FF FF FF       ................
009120: FF FF FF FF FF FF FF FF FF FF FF FF FF FF FF FF       ................
009130: FF FF FF FF FF FF FF FF FF FF FF FF FF FF FF FF       ................
009140: FF FF FF FF FF FF FF FF FF FF FF FF FF FF FF FF       ................
009150: FF FF FF FF FF FF FF FF FF FF FF FF FF FF FF FF       ................
009160: FF FF FF FF FF FF FF FF FF FF FF FF FF FF FF FF       ................
009170: FF FF FF FF FF FF FF FF FF FF FF FF FF FF FF FF       ................
009180: FF FF FF FF FF FF FF FF FF FF FF FF FF FF FF FF       ................
009190: FF FF FF FF FF FF FF FF FF FF FF FF FF FF FF FF       ................
0091A0: FF FF FF FF FF FF FF FF FF FF FF FF FF FF FF FF       ................
0091B0: FF FF FF FF FF FF FF FF FF FF FF FF FF FF FF FF       ................
0091C0: FF FF FF FF FF FF FF FF FF FF FF FF FF FF FF FF       ................
0091D0: FF FF FF FF FF FF FF FF FF FF FF FF FF FF FF FF       ................
0091E0: FF FF FF FF FF FF FF FF FF FF FF FF FF FF FF FF       ................
0091F0: FF FF FF FF FF FF FF FF FF FF FF FF FF FF FF FF       ................
009200: FF FF FF FF FF FF FF FF FF FF FF FF FF FF FF FF       ................
009210: FF FF FF FF FF FF FF FF FF FF FF FF FF FF FF FF       ................
009220: FF FF FF FF FF FF FF FF FF FF FF FF FF FF FF FF       ................
009230: FF FF FF FF FF FF FF FF FF FF FF FF FF FF FF FF       ................
009240: FF FF FF FF FF FF FF FF FF FF FF FF FF FF FF FF       ................
009250: FF FF FF FF FF FF FF FF FF FF FF FF FF FF FF FF       ................
009260: FF FF FF FF FF FF FF FF FF FF FF FF FF FF FF FF       ................
009270: FF FF FF FF FF FF FF FF FF FF FF FF FF FF FF FF       ................
009280: FF FF FF FF FF FF FF FF FF FF FF FF FF FF FF FF       ................
009290: FF FF FF FF FF FF FF FF FF FF FF FF FF FF FF FF       ................
0092A0: FF FF FF FF FF FF FF FF FF FF FF FF FF FF FF FF       ................
0092B0: FF FF FF FF FF FF FF FF FF FF FF FF FF FF FF FF       ................
0092C0: FF FF FF FF FF FF FF FF FF FF FF FF FF FF FF FF       ................
0092D0: FF FF FF FF FF FF FF FF FF FF FF FF FF FF FF FF       ................
0092E0: FF FF FF FF FF FF FF FF FF FF FF FF FF FF FF FF       ................
0092F0: FF FF FF FF FF FF FF FF FF FF FF FF FF FF FF FF       ................
009300: FF FF FF FF FF FF FF FF FF FF FF FF FF FF FF FF       ................
009310: FF FF FF FF FF FF FF FF FF FF FF FF FF FF FF FF       ................
009320: FF FF FF FF FF FF FF FF FF FF FF FF FF FF FF FF       ................
009330: FF FF FF FF FF FF FF FF FF FF FF FF FF FF FF FF       ................
009340: FF FF FF FF FF FF FF FF FF FF FF FF FF FF FF FF       ................
009350: FF FF FF FF FF FF FF FF FF FF FF FF FF FF FF FF       ................
009360: FF FF FF FF FF FF FF FF FF FF FF FF FF FF FF FF       ................
009370: FF FF FF FF FF FF FF FF FF FF FF FF FF FF FF FF       ................
009380: FF FF FF FF FF FF FF FF FF FF FF FF FF FF FF FF       ................
009390: FF FF FF FF FF FF FF FF FF FF FF FF FF FF FF FF       ................
0093A0: FF FF FF FF FF FF FF FF FF FF FF FF FF FF FF FF       ................
0093B0: FF FF FF FF FF FF FF FF FF FF FF FF FF FF FF FF       ................
0093C0: FF FF FF FF FF FF FF FF FF FF FF FF FF FF FF FF       ................
0093D0: FF FF FF FF FF FF FF FF FF FF FF FF FF FF FF FF       ................
0093E0: FF FF FF FF FF FF FF FF FF FF FF FF FF FF FF FF       ................
0093F0: FF FF FF FF FF FF FF FF FF FF FF FF FF FF FF FF       ................
009400: FF FF FF FF FF FF FF FF FF FF FF FF FF FF FF FF       ................
009410: FF FF FF FF FF FF FF FF FF FF FF FF FF FF FF FF       ................
009420: FF FF FF FF FF FF FF FF FF FF FF FF FF FF FF FF       ................
009430: FF FF FF FF FF FF FF FF FF FF FF FF FF FF FF FF       ................
009440: FF FF FF FF FF FF FF FF FF FF FF FF FF FF FF FF       ................
009450: FF FF FF FF FF FF FF FF FF FF FF FF FF FF FF FF       ................
009460: FF FF FF FF FF FF FF FF FF FF FF FF FF FF FF FF       ................
009470: FF FF FF FF FF FF FF FF FF FF FF FF FF FF FF FF       ................
009480: FF FF FF FF FF FF FF FF FF FF FF FF FF FF FF FF       ................
009490: FF FF FF FF FF FF FF FF FF FF FF FF FF FF FF FF       ................
0094A0: FF FF FF FF FF FF FF FF FF FF FF FF FF FF FF FF       ................
0094B0: FF FF FF FF FF FF FF FF FF FF FF FF FF FF FF FF       ................
0094C0: FF FF FF FF FF FF FF FF FF FF FF FF FF FF FF FF       ................
0094D0: FF FF FF FF FF FF FF FF FF FF FF FF FF FF FF FF       ................
0094E0: FF FF FF FF FF FF FF FF FF FF FF FF FF FF FF FF       ................
0094F0: FF FF FF FF FF FF FF FF FF FF FF FF FF FF FF FF       ................
009500: FF FF FF FF FF FF FF FF FF FF FF FF FF FF FF FF       ................
009510: FF FF FF FF FF FF FF FF FF FF FF FF FF FF FF FF       ................
009520: FF FF FF FF FF FF FF FF FF FF FF FF FF FF FF FF       ................
009530: FF FF FF FF FF FF FF FF FF FF FF FF FF FF FF FF       ................
009540: FF FF FF FF FF FF FF FF FF FF FF FF FF FF FF FF       ................
009550: FF FF FF FF FF FF FF FF FF FF FF FF FF FF FF FF       ................
009560: FF FF FF FF FF FF FF FF FF FF FF FF FF FF FF FF       ................
009570: FF FF FF FF FF FF FF FF FF FF FF FF FF FF FF FF       ................
009580: FF FF FF FF FF FF FF FF FF FF FF FF FF FF FF FF       ................
009590: FF FF FF FF FF FF FF FF FF FF FF FF FF FF FF FF       ................
0095A0: FF FF FF FF FF FF FF FF FF FF FF FF FF FF FF FF       ................
0095B0: FF FF FF FF FF FF FF FF FF FF FF FF FF FF FF FF       ................
0095C0: FF FF FF FF FF FF FF FF FF FF FF FF FF FF FF FF       ................
0095D0: FF FF FF FF FF FF FF FF FF FF FF FF FF FF FF FF       ................
0095E0: FF FF FF FF FF FF FF FF FF FF FF FF FF FF FF FF       ................
0095F0: FF FF FF FF FF FF FF FF FF FF FF FF FF FF FF FF       ................
009600: FF FF FF FF FF FF FF FF FF FF FF FF FF FF FF FF       ................
009610: FF FF FF FF FF FF FF FF FF FF FF FF FF FF FF FF       ................
009620: FF FF FF FF FF FF FF FF FF FF FF FF FF FF FF FF       ................
009630: FF FF FF FF FF FF FF FF FF FF FF FF FF FF FF FF       ................
009640: FF FF FF FF FF FF FF FF FF FF FF FF FF FF FF FF       ................
009650: FF FF FF FF FF FF FF FF FF FF FF FF FF FF FF FF       ................
009660: FF FF FF FF FF FF FF FF FF FF FF FF FF FF FF FF       ................
009670: FF FF FF FF FF FF FF FF FF FF FF FF FF FF FF FF       ................
009680: FF FF FF FF FF FF FF FF FF FF FF FF FF FF FF FF       ................
009690: FF FF FF FF FF FF FF FF FF FF FF FF FF FF FF FF       ................
0096A0: FF FF FF FF FF FF FF FF FF FF FF FF FF FF FF FF       ................
0096B0: FF FF FF FF FF FF FF FF FF FF FF FF FF FF FF FF       ................
0096C0: FF FF FF FF FF FF FF FF FF FF FF FF FF FF FF FF       ................
0096D0: FF FF FF FF FF FF FF FF FF FF FF FF FF FF FF FF       ................
0096E0: FF FF FF FF FF FF FF FF FF FF FF FF FF FF FF FF       ................
0096F0: FF FF FF FF FF FF FF FF FF FF FF FF FF FF FF FF       ................
009700: FF FF FF FF FF FF FF FF FF FF FF FF FF FF FF FF       ................
009710: FF FF FF FF FF FF FF FF FF FF FF FF FF FF FF FF       ................
009720: FF FF FF FF FF FF FF FF FF FF FF FF FF FF FF FF       ................
009730: FF FF FF FF FF FF FF FF FF FF FF FF FF FF FF FF       ................
009740: FF FF FF FF FF FF FF FF FF FF FF FF FF FF FF FF       ................
009750: FF FF FF FF FF FF FF FF FF FF FF FF FF FF FF FF       ................
009760: FF FF FF FF FF FF FF FF FF FF FF FF FF FF FF FF       ................
009770: FF FF FF FF FF FF FF FF FF FF FF FF FF FF FF FF       ................
009780: FF FF FF FF FF FF FF FF FF FF FF FF FF FF FF FF       ................
009790: FF FF FF FF FF FF FF FF FF FF FF FF FF FF FF FF       ................
0097A0: FF FF FF FF FF FF FF FF FF FF FF FF FF FF FF FF       ................
0097B0: FF FF FF FF FF FF FF FF FF FF FF FF FF FF FF FF       ................
0097C0: FF FF FF FF FF FF FF FF FF FF FF FF FF FF FF FF       ................
0097D0: FF FF FF FF FF FF FF FF FF FF FF FF FF FF FF FF       ................
0097E0: FF FF FF FF FF FF FF FF FF FF FF FF FF FF FF FF       ................
0097F0: FF FF FF FF FF FF FF FF FF FF FF FF FF FF FF FF       ................
009800: FF FF FF FF FF FF FF FF FF FF FF FF FF FF FF FF       ................
009810: FF FF FF FF FF FF FF FF FF FF FF FF FF FF FF FF       ................
009820: FF FF FF FF FF FF FF FF FF FF FF FF FF FF FF FF       ................
009830: FF FF FF FF FF FF FF FF FF FF FF FF FF FF FF FF       ................
009840: FF FF FF FF FF FF FF FF FF FF FF FF FF FF FF FF       ................
009850: FF FF FF FF FF FF FF FF FF FF FF FF FF FF FF FF       ................
009860: FF FF FF FF FF FF FF FF FF FF FF FF FF FF FF FF       ................
009870: FF FF FF FF FF FF FF FF FF FF FF FF FF FF FF FF       ................
009880: FF FF FF FF FF FF FF FF FF FF FF FF FF FF FF FF       ................
009890: FF FF FF FF FF FF FF FF FF FF FF FF FF FF FF FF       ................
0098A0: FF FF FF FF FF FF FF FF FF FF FF FF FF FF FF FF       ................
0098B0: FF FF FF FF FF FF FF FF FF FF FF FF FF FF FF FF       ................
0098C0: FF FF FF FF FF FF FF FF FF FF FF FF FF FF FF FF       ................
0098D0: FF FF FF FF FF FF FF FF FF FF FF FF FF FF FF FF       ................
0098E0: FF FF FF FF FF FF FF FF FF FF FF FF FF FF FF FF       ................
0098F0: FF FF FF FF FF FF FF FF FF FF FF FF FF FF FF FF       ................
009900: FF FF FF FF FF FF FF FF FF FF FF FF FF FF FF FF       ................
009910: FF FF FF FF FF FF FF FF FF FF FF FF FF FF FF FF       ................
009920: FF FF FF FF FF FF FF FF FF FF FF FF FF FF FF FF       ................
009930: FF FF FF FF FF FF FF FF FF FF FF FF FF FF FF FF       ................
009940: FF FF FF FF FF FF FF FF FF FF FF FF FF FF FF FF       ................
009950: FF FF FF FF FF FF FF FF FF FF FF FF FF FF FF FF       ................
009960: FF FF FF FF FF FF FF FF FF FF FF FF FF FF FF FF       ................
009970: FF FF FF FF FF FF FF FF FF FF FF FF FF FF FF FF       ................
009980: FF FF FF FF FF FF FF FF FF FF FF FF FF FF FF FF       ................
009990: FF FF FF FF FF FF FF FF FF FF FF FF FF FF FF FF       ................
0099A0: FF FF FF FF FF FF FF FF FF FF FF FF FF FF FF FF       ................
0099B0: FF FF FF FF FF FF FF FF FF FF FF FF FF FF FF FF       ................
0099C0: FF FF FF FF FF FF FF FF FF FF FF FF FF FF FF FF       ................
0099D0: FF FF FF FF FF FF FF FF FF FF FF FF FF FF FF FF       ................
0099E0: FF FF FF FF FF FF FF FF FF FF FF FF FF FF FF FF       ................
0099F0: FF FF FF FF FF FF FF FF FF FF FF FF FF FF FF FF       ................
009A00: FF FF FF FF FF FF FF FF FF FF FF FF FF FF FF FF       ................
009A10: FF FF FF FF FF FF FF FF FF FF FF FF FF FF FF FF       ................
009A20: FF FF FF FF FF FF FF FF FF FF FF FF FF FF FF FF       ................
009A30: FF FF FF FF FF FF FF FF FF FF FF FF FF FF FF FF       ................
009A40: FF FF FF FF FF FF FF FF FF FF FF FF FF FF FF FF       ................
009A50: FF FF FF FF FF FF FF FF FF FF FF FF FF FF FF FF       ................
009A60: FF FF FF FF FF FF FF FF FF FF FF FF FF FF FF FF       ................
009A70: FF FF FF FF FF FF FF FF FF FF FF FF FF FF FF FF       ................
009A80: FF FF FF FF FF FF FF FF FF FF FF FF FF FF FF FF       ................
009A90: FF FF FF FF FF FF FF FF FF FF FF FF FF FF FF FF       ................
009AA0: FF FF FF FF FF FF FF FF FF FF FF FF FF FF FF FF       ................
009AB0: FF FF FF FF FF FF FF FF FF FF FF FF FF FF FF FF       ................
009AC0: FF FF FF FF FF FF FF FF FF FF FF FF FF FF FF FF       ................
009AD0: FF FF FF FF FF FF FF FF FF FF FF FF FF FF FF FF       ................
009AE0: FF FF FF FF FF FF FF FF FF FF FF FF FF FF FF FF       ................
009AF0: FF FF FF FF FF FF FF FF FF FF FF FF FF FF FF FF       ................
009B00: FF FF FF FF FF FF FF FF FF FF FF FF FF FF FF FF       ................
009B10: FF FF FF FF FF FF FF FF FF FF FF FF FF FF FF FF       ................
009B20: FF FF FF FF FF FF FF FF FF FF FF FF FF FF FF FF       ................
009B30: FF FF FF FF FF FF FF FF FF FF FF FF FF FF FF FF       ................
009B40: FF FF FF FF FF FF FF FF FF FF FF FF FF FF FF FF       ................
009B50: FF FF FF FF FF FF FF FF FF FF FF FF FF FF FF FF       ................
009B60: FF FF FF FF FF FF FF FF FF FF FF FF FF FF FF FF       ................
009B70: FF FF FF FF FF FF FF FF FF FF FF FF FF FF FF FF       ................
009B80: FF FF FF FF FF FF FF FF FF FF FF FF FF FF FF FF       ................
009B90: FF FF FF FF FF FF FF FF FF FF FF FF FF FF FF FF       ................
009BA0: FF FF FF FF FF FF FF FF FF FF FF FF FF FF FF FF       ................
009BB0: FF FF FF FF FF FF FF FF FF FF FF FF FF FF FF FF       ................
009BC0: FF FF FF FF FF FF FF FF FF FF FF FF FF FF FF FF       ................
009BD0: FF FF FF FF FF FF FF FF FF FF FF FF FF FF FF FF       ................
009BE0: FF FF FF FF FF FF FF FF FF FF FF FF FF FF FF FF       ................
009BF0: FF FF FF FF FF FF FF FF FF FF FF FF FF FF FF FF       ................
009C00: FF FF FF FF FF FF FF FF FF FF FF FF FF FF FF FF       ................
009C10: FF FF FF FF FF FF FF FF FF FF FF FF FF FF FF FF       ................
009C20: FF FF FF FF FF FF FF FF FF FF FF FF FF FF FF FF       ................
009C30: FF FF FF FF FF FF FF FF FF FF FF FF FF FF FF FF       ................
009C40: FF FF FF FF FF FF FF FF FF FF FF FF FF FF FF FF       ................
009C50: FF FF FF FF FF FF FF FF FF FF FF FF FF FF FF FF       ................
009C60: FF FF FF FF FF FF FF FF FF FF FF FF FF FF FF FF       ................
009C70: FF FF FF FF FF FF FF FF FF FF FF FF FF FF FF FF       ................
009C80: FF FF FF FF FF FF FF FF FF FF FF FF FF FF FF FF       ................
009C90: FF FF FF FF FF FF FF FF FF FF FF FF FF FF FF FF       ................
009CA0: FF FF FF FF FF FF FF FF FF FF FF FF FF FF FF FF       ................
009CB0: FF FF FF FF FF FF FF FF FF FF FF FF FF FF FF FF       ................
009CC0: FF FF FF FF FF FF FF FF FF FF FF FF FF FF FF FF       ................
009CD0: FF FF FF FF FF FF FF FF FF FF FF FF FF FF FF FF       ................
009CE0: FF FF FF FF FF FF FF FF FF FF FF FF FF FF FF FF       ................
009CF0: FF FF FF FF FF FF FF FF FF FF FF FF FF FF FF FF       ................
009D00: FF FF FF FF FF FF FF FF FF FF FF FF FF FF FF FF       ................
009D10: FF FF FF FF FF FF FF FF FF FF FF FF FF FF FF FF       ................
009D20: FF FF FF FF FF FF FF FF FF FF FF FF FF FF FF FF       ................
009D30: FF FF FF FF FF FF FF FF FF FF FF FF FF FF FF FF       ................
009D40: FF FF FF FF FF FF FF FF FF FF FF FF FF FF FF FF       ................
009D50: FF FF FF FF FF FF FF FF FF FF FF FF FF FF FF FF       ................
009D60: FF FF FF FF FF FF FF FF FF FF FF FF FF FF FF FF       ................
009D70: FF FF FF FF FF FF FF FF FF FF FF FF FF FF FF FF       ................
009D80: FF FF FF FF FF FF FF FF FF FF FF FF FF FF FF FF       ................
009D90: FF FF FF FF FF FF FF FF FF FF FF FF FF FF FF FF       ................
009DA0: FF FF FF FF FF FF FF FF FF FF FF FF FF FF FF FF       ................
009DB0: FF FF FF FF FF FF FF FF FF FF FF FF FF FF FF FF       ................
009DC0: FF FF FF FF FF FF FF FF FF FF FF FF FF FF FF FF       ................
009DD0: FF FF FF FF FF FF FF FF FF FF FF FF FF FF FF FF       ................
009DE0: FF FF FF FF FF FF FF FF FF FF FF FF FF FF FF FF       ................
009DF0: FF FF FF FF FF FF FF FF FF FF FF FF FF FF FF FF       ................
009E00: FF FF FF FF FF FF FF FF FF FF FF FF FF FF FF FF       ................
009E10: FF FF FF FF FF FF FF FF FF FF FF FF FF FF FF FF       ................
009E20: FF FF FF FF FF FF FF FF FF FF FF FF FF FF FF FF       ................
009E30: FF FF FF FF FF FF FF FF FF FF FF FF FF FF FF FF       ................
009E40: FF FF FF FF FF FF FF FF FF FF FF FF FF FF FF FF       ................
009E50: FF FF FF FF FF FF FF FF FF FF FF FF FF FF FF FF       ................
009E60: FF FF FF FF FF FF FF FF FF FF FF FF FF FF FF FF       ................
009E70: FF FF FF FF FF FF FF FF FF FF FF FF FF FF FF FF       ................
009E80: FF FF FF FF FF FF FF FF FF FF FF FF FF FF FF FF       ................
009E90: FF FF FF FF FF FF FF FF FF FF FF FF FF FF FF FF       ................
009EA0: FF FF FF FF FF FF FF FF FF FF FF FF FF FF FF FF       ................
009EB0: FF FF FF FF FF FF FF FF FF FF FF FF FF FF FF FF       ................
009EC0: FF FF FF FF FF FF FF FF FF FF FF FF FF FF FF FF       ................
009ED0: FF FF FF FF FF FF FF FF FF FF FF FF FF FF FF FF       ................
009EE0: FF FF FF FF FF FF FF FF FF FF FF FF FF FF FF FF       ................
009EF0: FF FF FF FF FF FF FF FF FF FF FF FF FF FF FF FF       ................
009F00: FF FF FF FF FF FF FF FF FF FF FF FF FF FF FF FF       ................
009F10: FF FF FF FF FF FF FF FF FF FF FF FF FF FF FF FF       ................
009F20: FF FF FF FF FF FF FF FF FF FF FF FF FF FF FF FF       ................
009F30: FF FF FF FF FF FF FF FF FF FF FF FF FF FF FF FF       ................
009F40: FF FF FF FF FF FF FF FF FF FF FF FF FF FF FF FF       ................
009F50: FF FF FF FF FF FF FF FF FF FF FF FF FF FF FF FF       ................
009F60: FF FF FF FF FF FF FF FF FF FF FF FF FF FF FF FF       ................
009F70: FF FF FF FF FF FF FF FF FF FF FF FF FF FF FF FF       ................
009F80: FF FF FF FF FF FF FF FF FF FF FF FF FF FF FF FF       ................
009F90: FF FF FF FF FF FF FF FF FF FF FF FF FF FF FF FF       ................
009FA0: FF FF FF FF FF FF FF FF FF FF FF FF FF FF FF FF       ................
009FB0: FF FF FF FF FF FF FF FF FF FF FF FF FF FF FF FF       ................
009FC0: FF FF FF FF FF FF FF FF FF FF FF FF FF FF FF FF       ................
009FD0: FF FF FF FF FF FF FF FF FF FF FF FF FF FF FF FF       ................
009FE0: FF FF FF FF FF FF FF FF FF FF FF FF FF FF FF FF       ................
009FF0: FF FF FF FF FF FF FF FF FF FF FF FF FF FF FF FF       ................
00A000: FF FF FF FF FF FF FF FF FF FF FF FF FF FF FF FF       ................
00A010: FF FF FF FF FF FF FF FF FF FF FF FF FF FF FF FF       ................
00A020: FF FF FF FF FF FF FF FF FF FF FF FF FF FF FF FF       ................
00A030: FF FF FF FF FF FF FF FF FF FF FF FF FF FF FF FF       ................
00A040: FF FF FF FF FF FF FF FF FF FF FF FF FF FF FF FF       ................
00A050: FF FF FF FF FF FF FF FF FF FF FF FF FF FF FF FF       ................
00A060: FF FF FF FF FF FF FF FF FF FF FF FF FF FF FF FF       ................
00A070: FF FF FF FF FF FF FF FF FF FF FF FF FF FF FF FF       ................
00A080: FF FF FF FF FF FF FF FF FF FF FF FF FF FF FF FF       ................
00A090: FF FF FF FF FF FF FF FF FF FF FF FF FF FF FF FF       ................
00A0A0: FF FF FF FF FF FF FF FF FF FF FF FF FF FF FF FF       ................
00A0B0: FF FF FF FF FF FF FF FF FF FF FF FF FF FF FF FF       ................
00A0C0: FF FF FF FF FF FF FF FF FF FF FF FF FF FF FF FF       ................
00A0D0: FF FF FF FF FF FF FF FF FF FF FF FF FF FF FF FF       ................
00A0E0: FF FF FF FF FF FF FF FF FF FF FF FF FF FF FF FF       ................
00A0F0: FF FF FF FF FF FF FF FF FF FF FF FF FF FF FF FF       ................
00A100: FF FF FF FF FF FF FF FF FF FF FF FF FF FF FF FF       ................
00A110: FF FF FF FF FF FF FF FF FF FF FF FF FF FF FF FF       ................
00A120: FF FF FF FF FF FF FF FF FF FF FF FF FF FF FF FF       ................
00A130: FF FF FF FF FF FF FF FF FF FF FF FF FF FF FF FF       ................
00A140: FF FF FF FF FF FF FF FF FF FF FF FF FF FF FF FF       ................
00A150: FF FF FF FF FF FF FF FF FF FF FF FF FF FF FF FF       ................
00A160: FF FF FF FF FF FF FF FF FF FF FF FF FF FF FF FF       ................
00A170: FF FF FF FF FF FF FF FF FF FF FF FF FF FF FF FF       ................
00A180: FF FF FF FF FF FF FF FF FF FF FF FF FF FF FF FF       ................
00A190: FF FF FF FF FF FF FF FF FF FF FF FF FF FF FF FF       ................
00A1A0: FF FF FF FF FF FF FF FF FF FF FF FF FF FF FF FF       ................
00A1B0: FF FF FF FF FF FF FF FF FF FF FF FF FF FF FF FF       ................
00A1C0: FF FF FF FF FF FF FF FF FF FF FF FF FF FF FF FF       ................
00A1D0: FF FF FF FF FF FF FF FF FF FF FF FF FF FF FF FF       ................
00A1E0: FF FF FF FF FF FF FF FF FF FF FF FF FF FF FF FF       ................
00A1F0: FF FF FF FF FF FF FF FF FF FF FF FF FF FF FF FF       ................
00A200: FF FF FF FF FF FF FF FF FF FF FF FF FF FF FF FF       ................
00A210: FF FF FF FF FF FF FF FF FF FF FF FF FF FF FF FF       ................
00A220: FF FF FF FF FF FF FF FF FF FF FF FF FF FF FF FF       ................
00A230: FF FF FF FF FF FF FF FF FF FF FF FF FF FF FF FF       ................
00A240: FF FF FF FF FF FF FF FF FF FF FF FF FF FF FF FF       ................
00A250: FF FF FF FF FF FF FF FF FF FF FF FF FF FF FF FF       ................
00A260: FF FF FF FF FF FF FF FF FF FF FF FF FF FF FF FF       ................
00A270: FF FF FF FF FF FF FF FF FF FF FF FF FF FF FF FF       ................
00A280: FF FF FF FF FF FF FF FF FF FF FF FF FF FF FF FF       ................
00A290: FF FF FF FF FF FF FF FF FF FF FF FF FF FF FF FF       ................
00A2A0: FF FF FF FF FF FF FF FF FF FF FF FF FF FF FF FF       ................
00A2B0: FF FF FF FF FF FF FF FF FF FF FF FF FF FF FF FF       ................
00A2C0: FF FF FF FF FF FF FF FF FF FF FF FF FF FF FF FF       ................
00A2D0: FF FF FF FF FF FF FF FF FF FF FF FF FF FF FF FF       ................
00A2E0: FF FF FF FF FF FF FF FF FF FF FF FF FF FF FF FF       ................
00A2F0: FF FF FF FF FF FF FF FF FF FF FF FF FF FF FF FF       ................
00A300: FF FF FF FF FF FF FF FF FF FF FF FF FF FF FF FF       ................
00A310: FF FF FF FF FF FF FF FF FF FF FF FF FF FF FF FF       ................
00A320: FF FF FF FF FF FF FF FF FF FF FF FF FF FF FF FF       ................
00A330: FF FF FF FF FF FF FF FF FF FF FF FF FF FF FF FF       ................
00A340: FF FF FF FF FF FF FF FF FF FF FF FF FF FF FF FF       ................
00A350: FF FF FF FF FF FF FF FF FF FF FF FF FF FF FF FF       ................
00A360: FF FF FF FF FF FF FF FF FF FF FF FF FF FF FF FF       ................
00A370: FF FF FF FF FF FF FF FF FF FF FF FF FF FF FF FF       ................
00A380: FF FF FF FF FF FF FF FF FF FF FF FF FF FF FF FF       ................
00A390: FF FF FF FF FF FF FF FF FF FF FF FF FF FF FF FF       ................
00A3A0: FF FF FF FF FF FF FF FF FF FF FF FF FF FF FF FF       ................
00A3B0: FF FF FF FF FF FF FF FF FF FF FF FF FF FF FF FF       ................
00A3C0: FF FF FF FF FF FF FF FF FF FF FF FF FF FF FF FF       ................
00A3D0: FF FF FF FF FF FF FF FF FF FF FF FF FF FF FF FF       ................
00A3E0: FF FF FF FF FF FF FF FF FF FF FF FF FF FF FF FF       ................
00A3F0: FF FF FF FF FF FF FF FF FF FF FF FF FF FF FF FF       ................
00A400: FF FF FF FF FF FF FF FF FF FF FF FF FF FF FF FF       ................
00A410: FF FF FF FF FF FF FF FF FF FF FF FF FF FF FF FF       ................
00A420: FF FF FF FF FF FF FF FF FF FF FF FF FF FF FF FF       ................
00A430: FF FF FF FF FF FF FF FF FF FF FF FF FF FF FF FF       ................
00A440: FF FF FF FF FF FF FF FF FF FF FF FF FF FF FF FF       ................
00A450: FF FF FF FF FF FF FF FF FF FF FF FF FF FF FF FF       ................
00A460: FF FF FF FF FF FF FF FF FF FF FF FF FF FF FF FF       ................
00A470: FF FF FF FF FF FF FF FF FF FF FF FF FF FF FF FF       ................
00A480: FF FF FF FF FF FF FF FF FF FF FF FF FF FF FF FF       ................
00A490: FF FF FF FF FF FF FF FF FF FF FF FF FF FF FF FF       ................
00A4A0: FF FF FF FF FF FF FF FF FF FF FF FF FF FF FF FF       ................
00A4B0: FF FF FF FF FF FF FF FF FF FF FF FF FF FF FF FF       ................
00A4C0: FF FF FF FF FF FF FF FF FF FF FF FF FF FF FF FF       ................
00A4D0: FF FF FF FF FF FF FF FF FF FF FF FF FF FF FF FF       ................
00A4E0: FF FF FF FF FF FF FF FF FF FF FF FF FF FF FF FF       ................
00A4F0: FF FF FF FF FF FF FF FF FF FF FF FF FF FF FF FF       ................
00A500: FF FF FF FF FF FF FF FF FF FF FF FF FF FF FF FF       ................
00A510: FF FF FF FF FF FF FF FF FF FF FF FF FF FF FF FF       ................
00A520: FF FF FF FF FF FF FF FF FF FF FF FF FF FF FF FF       ................
00A530: FF FF FF FF FF FF FF FF FF FF FF FF FF FF FF FF       ................
00A540: FF FF FF FF FF FF FF FF FF FF FF FF FF FF FF FF       ................
00A550: FF FF FF FF FF FF FF FF FF FF FF FF FF FF FF FF       ................
00A560: FF FF FF FF FF FF FF FF FF FF FF FF FF FF FF FF       ................
00A570: FF FF FF FF FF FF FF FF FF FF FF FF FF FF FF FF       ................
00A580: FF FF FF FF FF FF FF FF FF FF FF FF FF FF FF FF       ................
00A590: FF FF FF FF FF FF FF FF FF FF FF FF FF FF FF FF       ................
00A5A0: FF FF FF FF FF FF FF FF FF FF FF FF FF FF FF FF       ................
00A5B0: FF FF FF FF FF FF FF FF FF FF FF FF FF FF FF FF       ................
00A5C0: FF FF FF FF FF FF FF FF FF FF FF FF FF FF FF FF       ................
00A5D0: FF FF FF FF FF FF FF FF FF FF FF FF FF FF FF FF       ................
00A5E0: FF FF FF FF FF FF FF FF FF FF FF FF FF FF FF FF       ................
00A5F0: FF FF FF FF FF FF FF FF FF FF FF FF FF FF FF FF       ................
00A600: FF FF FF FF FF FF FF FF FF FF FF FF FF FF FF FF       ................
00A610: FF FF FF FF FF FF FF FF FF FF FF FF FF FF FF FF       ................
00A620: FF FF FF FF FF FF FF FF FF FF FF FF FF FF FF FF       ................
00A630: FF FF FF FF FF FF FF FF FF FF FF FF FF FF FF FF       ................
00A640: FF FF FF FF FF FF FF FF FF FF FF FF FF FF FF FF       ................
00A650: FF FF FF FF FF FF FF FF FF FF FF FF FF FF FF FF       ................
00A660: FF FF FF FF FF FF FF FF FF FF FF FF FF FF FF FF       ................
00A670: FF FF FF FF FF FF FF FF FF FF FF FF FF FF FF FF       ................
00A680: FF FF FF FF FF FF FF FF FF FF FF FF FF FF FF FF       ................
00A690: FF FF FF FF FF FF FF FF FF FF FF FF FF FF FF FF       ................
00A6A0: FF FF FF FF FF FF FF FF FF FF FF FF FF FF FF FF       ................
00A6B0: FF FF FF FF FF FF FF FF FF FF FF FF FF FF FF FF       ................
00A6C0: FF FF FF FF FF FF FF FF FF FF FF FF FF FF FF FF       ................
00A6D0: FF FF FF FF FF FF FF FF FF FF FF FF FF FF FF FF       ................
00A6E0: FF FF FF FF FF FF FF FF FF FF FF FF FF FF FF FF       ................
00A6F0: FF FF FF FF FF FF FF FF FF FF FF FF FF FF FF FF       ................
00A700: FF FF FF FF FF FF FF FF FF FF FF FF FF FF FF FF       ................
00A710: FF FF FF FF FF FF FF FF FF FF FF FF FF FF FF FF       ................
00A720: FF FF FF FF FF FF FF FF FF FF FF FF FF FF FF FF       ................
00A730: FF FF FF FF FF FF FF FF FF FF FF FF FF FF FF FF       ................
00A740: FF FF FF FF FF FF FF FF FF FF FF FF FF FF FF FF       ................
00A750: FF FF FF FF FF FF FF FF FF FF FF FF FF FF FF FF       ................
00A760: FF FF FF FF FF FF FF FF FF FF FF FF FF FF FF FF       ................
00A770: FF FF FF FF FF FF FF FF FF FF FF FF FF FF FF FF       ................
00A780: FF FF FF FF FF FF FF FF FF FF FF FF FF FF FF FF       ................
00A790: FF FF FF FF FF FF FF FF FF FF FF FF FF FF FF FF       ................
00A7A0: FF FF FF FF FF FF FF FF FF FF FF FF FF FF FF FF       ................
00A7B0: FF FF FF FF FF FF FF FF FF FF FF FF FF FF FF FF       ................
00A7C0: FF FF FF FF FF FF FF FF FF FF FF FF FF FF FF FF       ................
00A7D0: FF FF FF FF FF FF FF FF FF FF FF FF FF FF FF FF       ................
00A7E0: FF FF FF FF FF FF FF FF FF FF FF FF FF FF FF FF       ................
00A7F0: FF FF FF FF FF FF FF FF FF FF FF FF FF FF FF FF       ................
00A800: FF FF FF FF FF FF FF FF FF FF FF FF FF FF FF FF       ................
00A810: FF FF FF FF FF FF FF FF FF FF FF FF FF FF FF FF       ................
00A820: FF FF FF FF FF FF FF FF FF FF FF FF FF FF FF FF       ................
00A830: FF FF FF FF FF FF FF FF FF FF FF FF FF FF FF FF       ................
00A840: FF FF FF FF FF FF FF FF FF FF FF FF FF FF FF FF       ................
00A850: FF FF FF FF FF FF FF FF FF FF FF FF FF FF FF FF       ................
00A860: FF FF FF FF FF FF FF FF FF FF FF FF FF FF FF FF       ................
00A870: FF FF FF FF FF FF FF FF FF FF FF FF FF FF FF FF       ................
00A880: FF FF FF FF FF FF FF FF FF FF FF FF FF FF FF FF       ................
00A890: FF FF FF FF FF FF FF FF FF FF FF FF FF FF FF FF       ................
00A8A0: FF FF FF FF FF FF FF FF FF FF FF FF FF FF FF FF       ................
00A8B0: FF FF FF FF FF FF FF FF FF FF FF FF FF FF FF FF       ................
00A8C0: FF FF FF FF FF FF FF FF FF FF FF FF FF FF FF FF       ................
00A8D0: FF FF FF FF FF FF FF FF FF FF FF FF FF FF FF FF       ................
00A8E0: FF FF FF FF FF FF FF FF FF FF FF FF FF FF FF FF       ................
00A8F0: FF FF FF FF FF FF FF FF FF FF FF FF FF FF FF FF       ................
00A900: FF FF FF FF FF FF FF FF FF FF FF FF FF FF FF FF       ................
00A910: FF FF FF FF FF FF FF FF FF FF FF FF FF FF FF FF       ................
00A920: FF FF FF FF FF FF FF FF FF FF FF FF FF FF FF FF       ................
00A930: FF FF FF FF FF FF FF FF FF FF FF FF FF FF FF FF       ................
00A940: FF FF FF FF FF FF FF FF FF FF FF FF FF FF FF FF       ................
00A950: FF FF FF FF FF FF FF FF FF FF FF FF FF FF FF FF       ................
00A960: FF FF FF FF FF FF FF FF FF FF FF FF FF FF FF FF       ................
00A970: FF FF FF FF FF FF FF FF FF FF FF FF FF FF FF FF       ................
00A980: FF FF FF FF FF FF FF FF FF FF FF FF FF FF FF FF       ................
00A990: FF FF FF FF FF FF FF FF FF FF FF FF FF FF FF FF       ................
00A9A0: FF FF FF FF FF FF FF FF FF FF FF FF FF FF FF FF       ................
00A9B0: FF FF FF FF FF FF FF FF FF FF FF FF FF FF FF FF       ................
00A9C0: FF FF FF FF FF FF FF FF FF FF FF FF FF FF FF FF       ................
00A9D0: FF FF FF FF FF FF FF FF FF FF FF FF FF FF FF FF       ................
00A9E0: FF FF FF FF FF FF FF FF FF FF FF FF FF FF FF FF       ................
00A9F0: FF FF FF FF FF FF FF FF FF FF FF FF FF FF FF FF       ................
00AA00: FF FF FF FF FF FF FF FF FF FF FF FF FF FF FF FF       ................
00AA10: FF FF FF FF FF FF FF FF FF FF FF FF FF FF FF FF       ................
00AA20: FF FF FF FF FF FF FF FF FF FF FF FF FF FF FF FF       ................
00AA30: FF FF FF FF FF FF FF FF FF FF FF FF FF FF FF FF       ................
00AA40: FF FF FF FF FF FF FF FF FF FF FF FF FF FF FF FF       ................
00AA50: FF FF FF FF FF FF FF FF FF FF FF FF FF FF FF FF       ................
00AA60: FF FF FF FF FF FF FF FF FF FF FF FF FF FF FF FF       ................
00AA70: FF FF FF FF FF FF FF FF FF FF FF FF FF FF FF FF       ................
00AA80: FF FF FF FF FF FF FF FF FF FF FF FF FF FF FF FF       ................
00AA90: FF FF FF FF FF FF FF FF FF FF FF FF FF FF FF FF       ................
00AAA0: FF FF FF FF FF FF FF FF FF FF FF FF FF FF FF FF       ................
00AAB0: FF FF FF FF FF FF FF FF FF FF FF FF FF FF FF FF       ................
00AAC0: FF FF FF FF FF FF FF FF FF FF FF FF FF FF FF FF       ................
00AAD0: FF FF FF FF FF FF FF FF FF FF FF FF FF FF FF FF       ................
00AAE0: FF FF FF FF FF FF FF FF FF FF FF FF FF FF FF FF       ................
00AAF0: FF FF FF FF FF FF FF FF FF FF FF FF FF FF FF FF       ................
00AB00: FF FF FF FF FF FF FF FF FF FF FF FF FF FF FF FF       ................
00AB10: FF FF FF FF FF FF FF FF FF FF FF FF FF FF FF FF       ................
00AB20: FF FF FF FF FF FF FF FF FF FF FF FF FF FF FF FF       ................
00AB30: FF FF FF FF FF FF FF FF FF FF FF FF FF FF FF FF       ................
00AB40: FF FF FF FF FF FF FF FF FF FF FF FF FF FF FF FF       ................
00AB50: FF FF FF FF FF FF FF FF FF FF FF FF FF FF FF FF       ................
00AB60: FF FF FF FF FF FF FF FF FF FF FF FF FF FF FF FF       ................
00AB70: FF FF FF FF FF FF FF FF FF FF FF FF FF FF FF FF       ................
00AB80: FF FF FF FF FF FF FF FF FF FF FF FF FF FF FF FF       ................
00AB90: FF FF FF FF FF FF FF FF FF FF FF FF FF FF FF FF       ................
00ABA0: FF FF FF FF FF FF FF FF FF FF FF FF FF FF FF FF       ................
00ABB0: FF FF FF FF FF FF FF FF FF FF FF FF FF FF FF FF       ................
00ABC0: FF FF FF FF FF FF FF FF FF FF FF FF FF FF FF FF       ................
00ABD0: FF FF FF FF FF FF FF FF FF FF FF FF FF FF FF FF       ................
00ABE0: FF FF FF FF FF FF FF FF FF FF FF FF FF FF FF FF       ................
00ABF0: FF FF FF FF FF FF FF FF FF FF FF FF FF FF FF FF       ................
00AC00: FF FF FF FF FF FF FF FF FF FF FF FF FF FF FF FF       ................
00AC10: FF FF FF FF FF FF FF FF FF FF FF FF FF FF FF FF       ................
00AC20: FF FF FF FF FF FF FF FF FF FF FF FF FF FF FF FF       ................
00AC30: FF FF FF FF FF FF FF FF FF FF FF FF FF FF FF FF       ................
00AC40: FF FF FF FF FF FF FF FF FF FF FF FF FF FF FF FF       ................
00AC50: FF FF FF FF FF FF FF FF FF FF FF FF FF FF FF FF       ................
00AC60: FF FF FF FF FF FF FF FF FF FF FF FF FF FF FF FF       ................
00AC70: FF FF FF FF FF FF FF FF FF FF FF FF FF FF FF FF       ................
00AC80: FF FF FF FF FF FF FF FF FF FF FF FF FF FF FF FF       ................
00AC90: FF FF FF FF FF FF FF FF FF FF FF FF FF FF FF FF       ................
00ACA0: FF FF FF FF FF FF FF FF FF FF FF FF FF FF FF FF       ................
00ACB0: FF FF FF FF FF FF FF FF FF FF FF FF FF FF FF FF       ................
00ACC0: FF FF FF FF FF FF FF FF FF FF FF FF FF FF FF FF       ................
00ACD0: FF FF FF FF FF FF FF FF FF FF FF FF FF FF FF FF       ................
00ACE0: FF FF FF FF FF FF FF FF FF FF FF FF FF FF FF FF       ................
00ACF0: FF FF FF FF FF FF FF FF FF FF FF FF FF FF FF FF       ................
00AD00: FF FF FF FF FF FF FF FF FF FF FF FF FF FF FF FF       ................
00AD10: FF FF FF FF FF FF FF FF FF FF FF FF FF FF FF FF       ................
00AD20: FF FF FF FF FF FF FF FF FF FF FF FF FF FF FF FF       ................
00AD30: FF FF FF FF FF FF FF FF FF FF FF FF FF FF FF FF       ................
00AD40: FF FF FF FF FF FF FF FF FF FF FF FF FF FF FF FF       ................
00AD50: FF FF FF FF FF FF FF FF FF FF FF FF FF FF FF FF       ................
00AD60: FF FF FF FF FF FF FF FF FF FF FF FF FF FF FF FF       ................
00AD70: FF FF FF FF FF FF FF FF FF FF FF FF FF FF FF FF       ................
00AD80: FF FF FF FF FF FF FF FF FF FF FF FF FF FF FF FF       ................
00AD90: FF FF FF FF FF FF FF FF FF FF FF FF FF FF FF FF       ................
00ADA0: FF FF FF FF FF FF FF FF FF FF FF FF FF FF FF FF       ................
00ADB0: FF FF FF FF FF FF FF FF FF FF FF FF FF FF FF FF       ................
00ADC0: FF FF FF FF FF FF FF FF FF FF FF FF FF FF FF FF       ................
00ADD0: FF FF FF FF FF FF FF FF FF FF FF FF FF FF FF FF       ................
00ADE0: FF FF FF FF FF FF FF FF FF FF FF FF FF FF FF FF       ................
00ADF0: FF FF FF FF FF FF FF FF FF FF FF FF FF FF FF FF       ................
00AE00: FF FF FF FF FF FF FF FF FF FF FF FF FF FF FF FF       ................
00AE10: FF FF FF FF FF FF FF FF FF FF FF FF FF FF FF FF       ................
00AE20: FF FF FF FF FF FF FF FF FF FF FF FF FF FF FF FF       ................
00AE30: FF FF FF FF FF FF FF FF FF FF FF FF FF FF FF FF       ................
00AE40: FF FF FF FF FF FF FF FF FF FF FF FF FF FF FF FF       ................
00AE50: FF FF FF FF FF FF FF FF FF FF FF FF FF FF FF FF       ................
00AE60: FF FF FF FF FF FF FF FF FF FF FF FF FF FF FF FF       ................
00AE70: FF FF FF FF FF FF FF FF FF FF FF FF FF FF FF FF       ................
00AE80: FF FF FF FF FF FF FF FF FF FF FF FF FF FF FF FF       ................
00AE90: FF FF FF FF FF FF FF FF FF FF FF FF FF FF FF FF       ................
00AEA0: FF FF FF FF FF FF FF FF FF FF FF FF FF FF FF FF       ................
00AEB0: FF FF FF FF FF FF FF FF FF FF FF FF FF FF FF FF       ................
00AEC0: FF FF FF FF FF FF FF FF FF FF FF FF FF FF FF FF       ................
00AED0: FF FF FF FF FF FF FF FF FF FF FF FF FF FF FF FF       ................
00AEE0: FF FF FF FF FF FF FF FF FF FF FF FF FF FF FF FF       ................
00AEF0: FF FF FF FF FF FF FF FF FF FF FF FF FF FF FF FF       ................
00AF00: FF FF FF FF FF FF FF FF FF FF FF FF FF FF FF FF       ................
00AF10: FF FF FF FF FF FF FF FF FF FF FF FF FF FF FF FF       ................
00AF20: FF FF FF FF FF FF FF FF FF FF FF FF FF FF FF FF       ................
00AF30: FF FF FF FF FF FF FF FF FF FF FF FF FF FF FF FF       ................
00AF40: FF FF FF FF FF FF FF FF FF FF FF FF FF FF FF FF       ................
00AF50: FF FF FF FF FF FF FF FF FF FF FF FF FF FF FF FF       ................
00AF60: FF FF FF FF FF FF FF FF FF FF FF FF FF FF FF FF       ................
00AF70: FF FF FF FF FF FF FF FF FF FF FF FF FF FF FF FF       ................
00AF80: FF FF FF FF FF FF FF FF FF FF FF FF FF FF FF FF       ................
00AF90: FF FF FF FF FF FF FF FF FF FF FF FF FF FF FF FF       ................
00AFA0: FF FF FF FF FF FF FF FF FF FF FF FF FF FF FF FF       ................
00AFB0: FF FF FF FF FF FF FF FF FF FF FF FF FF FF FF FF       ................
00AFC0: FF FF FF FF FF FF FF FF FF FF FF FF FF FF FF FF       ................
00AFD0: FF FF FF FF FF FF FF FF FF FF FF FF FF FF FF FF       ................
00AFE0: FF FF FF FF FF FF FF FF FF FF FF FF FF FF FF FF       ................
00AFF0: FF FF FF FF FF FF FF FF FF FF FF FF FF FF FF FF       ................
00B000: FF FF FF FF FF FF FF FF FF FF FF FF FF FF FF FF       ................
00B010: FF FF FF FF FF FF FF FF FF FF FF FF FF FF FF FF       ................
00B020: FF FF FF FF FF FF FF FF FF FF FF FF FF FF FF FF       ................
00B030: FF FF FF FF FF FF FF FF FF FF FF FF FF FF FF FF       ................
00B040: FF FF FF FF FF FF FF FF FF FF FF FF FF FF FF FF       ................
00B050: FF FF FF FF FF FF FF FF FF FF FF FF FF FF FF FF       ................
00B060: FF FF FF FF FF FF FF FF FF FF FF FF FF FF FF FF       ................
00B070: FF FF FF FF FF FF FF FF FF FF FF FF FF FF FF FF       ................
00B080: FF FF FF FF FF FF FF FF FF FF FF FF FF FF FF FF       ................
00B090: FF FF FF FF FF FF FF FF FF FF FF FF FF FF FF FF       ................
00B0A0: FF FF FF FF FF FF FF FF FF FF FF FF FF FF FF FF       ................
00B0B0: FF FF FF FF FF FF FF FF FF FF FF FF FF FF FF FF       ................
00B0C0: FF FF FF FF FF FF FF FF FF FF FF FF FF FF FF FF       ................
00B0D0: FF FF FF FF FF FF FF FF FF FF FF FF FF FF FF FF       ................
00B0E0: FF FF FF FF FF FF FF FF FF FF FF FF FF FF FF FF       ................
00B0F0: FF FF FF FF FF FF FF FF FF FF FF FF FF FF FF FF       ................
00B100: FF FF FF FF FF FF FF FF FF FF FF FF FF FF FF FF       ................
00B110: FF FF FF FF FF FF FF FF FF FF FF FF FF FF FF FF       ................
00B120: FF FF FF FF FF FF FF FF FF FF FF FF FF FF FF FF       ................
00B130: FF FF FF FF FF FF FF FF FF FF FF FF FF FF FF FF       ................
00B140: FF FF FF FF FF FF FF FF FF FF FF FF FF FF FF FF       ................
00B150: FF FF FF FF FF FF FF FF FF FF FF FF FF FF FF FF       ................
00B160: FF FF FF FF FF FF FF FF FF FF FF FF FF FF FF FF       ................
00B170: FF FF FF FF FF FF FF FF FF FF FF FF FF FF FF FF       ................
00B180: FF FF FF FF FF FF FF FF FF FF FF FF FF FF FF FF       ................
00B190: FF FF FF FF FF FF FF FF FF FF FF FF FF FF FF FF       ................
00B1A0: FF FF FF FF FF FF FF FF FF FF FF FF FF FF FF FF       ................
00B1B0: FF FF FF FF FF FF FF FF FF FF FF FF FF FF FF FF       ................
00B1C0: FF FF FF FF FF FF FF FF FF FF FF FF FF FF FF FF       ................
00B1D0: FF FF FF FF FF FF FF FF FF FF FF FF FF FF FF FF       ................
00B1E0: FF FF FF FF FF FF FF FF FF FF FF FF FF FF FF FF       ................
00B1F0: FF FF FF FF FF FF FF FF FF FF FF FF FF FF FF FF       ................
00B200: FF FF FF FF FF FF FF FF FF FF FF FF FF FF FF FF       ................
00B210: FF FF FF FF FF FF FF FF FF FF FF FF FF FF FF FF       ................
00B220: FF FF FF FF FF FF FF FF FF FF FF FF FF FF FF FF       ................
00B230: FF FF FF FF FF FF FF FF FF FF FF FF FF FF FF FF       ................
00B240: FF FF FF FF FF FF FF FF FF FF FF FF FF FF FF FF       ................
00B250: FF FF FF FF FF FF FF FF FF FF FF FF FF FF FF FF       ................
00B260: FF FF FF FF FF FF FF FF FF FF FF FF FF FF FF FF       ................
00B270: FF FF FF FF FF FF FF FF FF FF FF FF FF FF FF FF       ................
00B280: FF FF FF FF FF FF FF FF FF FF FF FF FF FF FF FF       ................
00B290: FF FF FF FF FF FF FF FF FF FF FF FF FF FF FF FF       ................
00B2A0: FF FF FF FF FF FF FF FF FF FF FF FF FF FF FF FF       ................
00B2B0: FF FF FF FF FF FF FF FF FF FF FF FF FF FF FF FF       ................
00B2C0: FF FF FF FF FF FF FF FF FF FF FF FF FF FF FF FF       ................
00B2D0: FF FF FF FF FF FF FF FF FF FF FF FF FF FF FF FF       ................
00B2E0: FF FF FF FF FF FF FF FF FF FF FF FF FF FF FF FF       ................
00B2F0: FF FF FF FF FF FF FF FF FF FF FF FF FF FF FF FF       ................
00B300: FF FF FF FF FF FF FF FF FF FF FF FF FF FF FF FF       ................
00B310: FF FF FF FF FF FF FF FF FF FF FF FF FF FF FF FF       ................
00B320: FF FF FF FF FF FF FF FF FF FF FF FF FF FF FF FF       ................
00B330: FF FF FF FF FF FF FF FF FF FF FF FF FF FF FF FF       ................
00B340: FF FF FF FF FF FF FF FF FF FF FF FF FF FF FF FF       ................
00B350: FF FF FF FF FF FF FF FF FF FF FF FF FF FF FF FF       ................
00B360: FF FF FF FF FF FF FF FF FF FF FF FF FF FF FF FF       ................
00B370: FF FF FF FF FF FF FF FF FF FF FF FF FF FF FF FF       ................
00B380: FF FF FF FF FF FF FF FF FF FF FF FF FF FF FF FF       ................
00B390: FF FF FF FF FF FF FF FF FF FF FF FF FF FF FF FF       ................
00B3A0: FF FF FF FF FF FF FF FF FF FF FF FF FF FF FF FF       ................
00B3B0: FF FF FF FF FF FF FF FF FF FF FF FF FF FF FF FF       ................
00B3C0: FF FF FF FF FF FF FF FF FF FF FF FF FF FF FF FF       ................
00B3D0: FF FF FF FF FF FF FF FF FF FF FF FF FF FF FF FF       ................
00B3E0: FF FF FF FF FF FF FF FF FF FF FF FF FF FF FF FF       ................
00B3F0: FF FF FF FF FF FF FF FF FF FF FF FF FF FF FF FF       ................
00B400: FF FF FF FF FF FF FF FF FF FF FF FF FF FF FF FF       ................
00B410: FF FF FF FF FF FF FF FF FF FF FF FF FF FF FF FF       ................
00B420: FF FF FF FF FF FF FF FF FF FF FF FF FF FF FF FF       ................
00B430: FF FF FF FF FF FF FF FF FF FF FF FF FF FF FF FF       ................
00B440: FF FF FF FF FF FF FF FF FF FF FF FF FF FF FF FF       ................
00B450: FF FF FF FF FF FF FF FF FF FF FF FF FF FF FF FF       ................
00B460: FF FF FF FF FF FF FF FF FF FF FF FF FF FF FF FF       ................
00B470: FF FF FF FF FF FF FF FF FF FF FF FF FF FF FF FF       ................
00B480: FF FF FF FF FF FF FF FF FF FF FF FF FF FF FF FF       ................
00B490: FF FF FF FF FF FF FF FF FF FF FF FF FF FF FF FF       ................
00B4A0: FF FF FF FF FF FF FF FF FF FF FF FF FF FF FF FF       ................
00B4B0: FF FF FF FF FF FF FF FF FF FF FF FF FF FF FF FF       ................
00B4C0: FF FF FF FF FF FF FF FF FF FF FF FF FF FF FF FF       ................
00B4D0: FF FF FF FF FF FF FF FF FF FF FF FF FF FF FF FF       ................
00B4E0: FF FF FF FF FF FF FF FF FF FF FF FF FF FF FF FF       ................
00B4F0: FF FF FF FF FF FF FF FF FF FF FF FF FF FF FF FF       ................
00B500: FF FF FF FF FF FF FF FF FF FF FF FF FF FF FF FF       ................
00B510: FF FF FF FF FF FF FF FF FF FF FF FF FF FF FF FF       ................
00B520: FF FF FF FF FF FF FF FF FF FF FF FF FF FF FF FF       ................
00B530: FF FF FF FF FF FF FF FF FF FF FF FF FF FF FF FF       ................
00B540: FF FF FF FF FF FF FF FF FF FF FF FF FF FF FF FF       ................
00B550: FF FF FF FF FF FF FF FF FF FF FF FF FF FF FF FF       ................
00B560: FF FF FF FF FF FF FF FF FF FF FF FF FF FF FF FF       ................
00B570: FF FF FF FF FF FF FF FF FF FF FF FF FF FF FF FF       ................
00B580: FF FF FF FF FF FF FF FF FF FF FF FF FF FF FF FF       ................
00B590: FF FF FF FF FF FF FF FF FF FF FF FF FF FF FF FF       ................
00B5A0: FF FF FF FF FF FF FF FF FF FF FF FF FF FF FF FF       ................
00B5B0: FF FF FF FF FF FF FF FF FF FF FF FF FF FF FF FF       ................
00B5C0: FF FF FF FF FF FF FF FF FF FF FF FF FF FF FF FF       ................
00B5D0: FF FF FF FF FF FF FF FF FF FF FF FF FF FF FF FF       ................
00B5E0: FF FF FF FF FF FF FF FF FF FF FF FF FF FF FF FF       ................
00B5F0: FF FF FF FF FF FF FF FF FF FF FF FF FF FF FF FF       ................
00B600: FF FF FF FF FF FF FF FF FF FF FF FF FF FF FF FF       ................
00B610: FF FF FF FF FF FF FF FF FF FF FF FF FF FF FF FF       ................
00B620: FF FF FF FF FF FF FF FF FF FF FF FF FF FF FF FF       ................
00B630: FF FF FF FF FF FF FF FF FF FF FF FF FF FF FF FF       ................
00B640: FF FF FF FF FF FF FF FF FF FF FF FF FF FF FF FF       ................
00B650: FF FF FF FF FF FF FF FF FF FF FF FF FF FF FF FF       ................
00B660: FF FF FF FF FF FF FF FF FF FF FF FF FF FF FF FF       ................
00B670: FF FF FF FF FF FF FF FF FF FF FF FF FF FF FF FF       ................
00B680: FF FF FF FF FF FF FF FF FF FF FF FF FF FF FF FF       ................
00B690: FF FF FF FF FF FF FF FF FF FF FF FF FF FF FF FF       ................
00B6A0: FF FF FF FF FF FF FF FF FF FF FF FF FF FF FF FF       ................
00B6B0: FF FF FF FF FF FF FF FF FF FF FF FF FF FF FF FF       ................
00B6C0: FF FF FF FF FF FF FF FF FF FF FF FF FF FF FF FF       ................
00B6D0: FF FF FF FF FF FF FF FF FF FF FF FF FF FF FF FF       ................
00B6E0: FF FF FF FF FF FF FF FF FF FF FF FF FF FF FF FF       ................
00B6F0: FF FF FF FF FF FF FF FF FF FF FF FF FF FF FF FF       ................
00B700: FF FF FF FF FF FF FF FF FF FF FF FF FF FF FF FF       ................
00B710: FF FF FF FF FF FF FF FF FF FF FF FF FF FF FF FF       ................
00B720: FF FF FF FF FF FF FF FF FF FF FF FF FF FF FF FF       ................
00B730: FF FF FF FF FF FF FF FF FF FF FF FF FF FF FF FF       ................
00B740: FF FF FF FF FF FF FF FF FF FF FF FF FF FF FF FF       ................
00B750: FF FF FF FF FF FF FF FF FF FF FF FF FF FF FF FF       ................
00B760: FF FF FF FF FF FF FF FF FF FF FF FF FF FF FF FF       ................
00B770: FF FF FF FF FF FF FF FF FF FF FF FF FF FF FF FF       ................
00B780: FF FF FF FF FF FF FF FF FF FF FF FF FF FF FF FF       ................
00B790: FF FF FF FF FF FF FF FF FF FF FF FF FF FF FF FF       ................
00B7A0: FF FF FF FF FF FF FF FF FF FF FF FF FF FF FF FF       ................
00B7B0: FF FF FF FF FF FF FF FF FF FF FF FF FF FF FF FF       ................
00B7C0: FF FF FF FF FF FF FF FF FF FF FF FF FF FF FF FF       ................
00B7D0: FF FF FF FF FF FF FF FF FF FF FF FF FF FF FF FF       ................
00B7E0: FF FF FF FF FF FF FF FF FF FF FF FF FF FF FF FF       ................
00B7F0: FF FF FF FF FF FF FF FF FF FF FF FF FF FF FF FF       ................
00B800: FF FF FF FF FF FF FF FF FF FF FF FF FF FF FF FF       ................
00B810: FF FF FF FF FF FF FF FF FF FF FF FF FF FF FF FF       ................
00B820: FF FF FF FF FF FF FF FF FF FF FF FF FF FF FF FF       ................
00B830: FF FF FF FF FF FF FF FF FF FF FF FF FF FF FF FF       ................
00B840: FF FF FF FF FF FF FF FF FF FF FF FF FF FF FF FF       ................
00B850: FF FF FF FF FF FF FF FF FF FF FF FF FF FF FF FF       ................
00B860: FF FF FF FF FF FF FF FF FF FF FF FF FF FF FF FF       ................
00B870: FF FF FF FF FF FF FF FF FF FF FF FF FF FF FF FF       ................
00B880: FF FF FF FF FF FF FF FF FF FF FF FF FF FF FF FF       ................
00B890: FF FF FF FF FF FF FF FF FF FF FF FF FF FF FF FF       ................
00B8A0: FF FF FF FF FF FF FF FF FF FF FF FF FF FF FF FF       ................
00B8B0: FF FF FF FF FF FF FF FF FF FF FF FF FF FF FF FF       ................
00B8C0: FF FF FF FF FF FF FF FF FF FF FF FF FF FF FF FF       ................
00B8D0: FF FF FF FF FF FF FF FF FF FF FF FF FF FF FF FF       ................
00B8E0: FF FF FF FF FF FF FF FF FF FF FF FF FF FF FF FF       ................
00B8F0: FF FF FF FF FF FF FF FF FF FF FF FF FF FF FF FF       ................
00B900: FF FF FF FF FF FF FF FF FF FF FF FF FF FF FF FF       ................
00B910: FF FF FF FF FF FF FF FF FF FF FF FF FF FF FF FF       ................
00B920: FF FF FF FF FF FF FF FF FF FF FF FF FF FF FF FF       ................
00B930: FF FF FF FF FF FF FF FF FF FF FF FF FF FF FF FF       ................
00B940: FF FF FF FF FF FF FF FF FF FF FF FF FF FF FF FF       ................
00B950: FF FF FF FF FF FF FF FF FF FF FF FF FF FF FF FF       ................
00B960: FF FF FF FF FF FF FF FF FF FF FF FF FF FF FF FF       ................
00B970: FF FF FF FF FF FF FF FF FF FF FF FF FF FF FF FF       ................
00B980: FF FF FF FF FF FF FF FF FF FF FF FF FF FF FF FF       ................
00B990: FF FF FF FF FF FF FF FF FF FF FF FF FF FF FF FF       ................
00B9A0: FF FF FF FF FF FF FF FF FF FF FF FF FF FF FF FF       ................
00B9B0: FF FF FF FF FF FF FF FF FF FF FF FF FF FF FF FF       ................
00B9C0: FF FF FF FF FF FF FF FF FF FF FF FF FF FF FF FF       ................
00B9D0: FF FF FF FF FF FF FF FF FF FF FF FF FF FF FF FF       ................
00B9E0: FF FF FF FF FF FF FF FF FF FF FF FF FF FF FF FF       ................
00B9F0: FF FF FF FF FF FF FF FF FF FF FF FF FF FF FF FF       ................
00BA00: FF FF FF FF FF FF FF FF FF FF FF FF FF FF FF FF       ................
00BA10: FF FF FF FF FF FF FF FF FF FF FF FF FF FF FF FF       ................
00BA20: FF FF FF FF FF FF FF FF FF FF FF FF FF FF FF FF       ................
00BA30: FF FF FF FF FF FF FF FF FF FF FF FF FF FF FF FF       ................
00BA40: FF FF FF FF FF FF FF FF FF FF FF FF FF FF FF FF       ................
00BA50: FF FF FF FF FF FF FF FF FF FF FF FF FF FF FF FF       ................
00BA60: FF FF FF FF FF FF FF FF FF FF FF FF FF FF FF FF       ................
00BA70: FF FF FF FF FF FF FF FF FF FF FF FF FF FF FF FF       ................
00BA80: FF FF FF FF FF FF FF FF FF FF FF FF FF FF FF FF       ................
00BA90: FF FF FF FF FF FF FF FF FF FF FF FF FF FF FF FF       ................
00BAA0: FF FF FF FF FF FF FF FF FF FF FF FF FF FF FF FF       ................
00BAB0: FF FF FF FF FF FF FF FF FF FF FF FF FF FF FF FF       ................
00BAC0: FF FF FF FF FF FF FF FF FF FF FF FF FF FF FF FF       ................
00BAD0: FF FF FF FF FF FF FF FF FF FF FF FF FF FF FF FF       ................
00BAE0: FF FF FF FF FF FF FF FF FF FF FF FF FF FF FF FF       ................
00BAF0: FF FF FF FF FF FF FF FF FF FF FF FF FF FF FF FF       ................
00BB00: FF FF FF FF FF FF FF FF FF FF FF FF FF FF FF FF       ................
00BB10: FF FF FF FF FF FF FF FF FF FF FF FF FF FF FF FF       ................
00BB20: FF FF FF FF FF FF FF FF FF FF FF FF FF FF FF FF       ................
00BB30: FF FF FF FF FF FF FF FF FF FF FF FF FF FF FF FF       ................
00BB40: FF FF FF FF FF FF FF FF FF FF FF FF FF FF FF FF       ................
00BB50: FF FF FF FF FF FF FF FF FF FF FF FF FF FF FF FF       ................
00BB60: FF FF FF FF FF FF FF FF FF FF FF FF FF FF FF FF       ................
00BB70: FF FF FF FF FF FF FF FF FF FF FF FF FF FF FF FF       ................
00BB80: FF FF FF FF FF FF FF FF FF FF FF FF FF FF FF FF       ................
00BB90: FF FF FF FF FF FF FF FF FF FF FF FF FF FF FF FF       ................
00BBA0: FF FF FF FF FF FF FF FF FF FF FF FF FF FF FF FF       ................
00BBB0: FF FF FF FF FF FF FF FF FF FF FF FF FF FF FF FF       ................
00BBC0: FF FF FF FF FF FF FF FF FF FF FF FF FF FF FF FF       ................
00BBD0: FF FF FF FF FF FF FF FF FF FF FF FF FF FF FF FF       ................
00BBE0: FF FF FF FF FF FF FF FF FF FF FF FF FF FF FF FF       ................
00BBF0: FF FF FF FF FF FF FF FF FF FF FF FF FF FF FF FF       ................
00BC00: FF FF FF FF FF FF FF FF FF FF FF FF FF FF FF FF       ................
00BC10: FF FF FF FF FF FF FF FF FF FF FF FF FF FF FF FF       ................
00BC20: FF FF FF FF FF FF FF FF FF FF FF FF FF FF FF FF       ................
00BC30: FF FF FF FF FF FF FF FF FF FF FF FF FF FF FF FF       ................
00BC40: FF FF FF FF FF FF FF FF FF FF FF FF FF FF FF FF       ................
00BC50: FF FF FF FF FF FF FF FF FF FF FF FF FF FF FF FF       ................
00BC60: FF FF FF FF FF FF FF FF FF FF FF FF FF FF FF FF       ................
00BC70: FF FF FF FF FF FF FF FF FF FF FF FF FF FF FF FF       ................
00BC80: FF FF FF FF FF FF FF FF FF FF FF FF FF FF FF FF       ................
00BC90: FF FF FF FF FF FF FF FF FF FF FF FF FF FF FF FF       ................
00BCA0: FF FF FF FF FF FF FF FF FF FF FF FF FF FF FF FF       ................
00BCB0: FF FF FF FF FF FF FF FF FF FF FF FF FF FF FF FF       ................
00BCC0: FF FF FF FF FF FF FF FF FF FF FF FF FF FF FF FF       ................
00BCD0: FF FF FF FF FF FF FF FF FF FF FF FF FF FF FF FF       ................
00BCE0: FF FF FF FF FF FF FF FF FF FF FF FF FF FF FF FF       ................
00BCF0: FF FF FF FF FF FF FF FF FF FF FF FF FF FF FF FF       ................
00BD00: FF FF FF FF FF FF FF FF FF FF FF FF FF FF FF FF       ................
00BD10: FF FF FF FF FF FF FF FF FF FF FF FF FF FF FF FF       ................
00BD20: FF FF FF FF FF FF FF FF FF FF FF FF FF FF FF FF       ................
00BD30: FF FF FF FF FF FF FF FF FF FF FF FF FF FF FF FF       ................
00BD40: FF FF FF FF FF FF FF FF FF FF FF FF FF FF FF FF       ................
00BD50: FF FF FF FF FF FF FF FF FF FF FF FF FF FF FF FF       ................
00BD60: FF FF FF FF FF FF FF FF FF FF FF FF FF FF FF FF       ................
00BD70: FF FF FF FF FF FF FF FF FF FF FF FF FF FF FF FF       ................
00BD80: FF FF FF FF FF FF FF FF FF FF FF FF FF FF FF FF       ................
00BD90: FF FF FF FF FF FF FF FF FF FF FF FF FF FF FF FF       ................
00BDA0: FF FF FF FF FF FF FF FF FF FF FF FF FF FF FF FF       ................
00BDB0: FF FF FF FF FF FF FF FF FF FF FF FF FF FF FF FF       ................
00BDC0: FF FF FF FF FF FF FF FF FF FF FF FF FF FF FF FF       ................
00BDD0: FF FF FF FF FF FF FF FF FF FF FF FF FF FF FF FF       ................
00BDE0: FF FF FF FF FF FF FF FF FF FF FF FF FF FF FF FF       ................
00BDF0: FF FF FF FF FF FF FF FF FF FF FF FF FF FF FF FF       ................
00BE00: FF FF FF FF FF FF FF FF FF FF FF FF FF FF FF FF       ................
00BE10: FF FF FF FF FF FF FF FF FF FF FF FF FF FF FF FF       ................
00BE20: FF FF FF FF FF FF FF FF FF FF FF FF FF FF FF FF       ................
00BE30: FF FF FF FF FF FF FF FF FF FF FF FF FF FF FF FF       ................
00BE40: FF FF FF FF FF FF FF FF FF FF FF FF FF FF FF FF       ................
00BE50: FF FF FF FF FF FF FF FF FF FF FF FF FF FF FF FF       ................
00BE60: FF FF FF FF FF FF FF FF FF FF FF FF FF FF FF FF       ................
00BE70: FF FF FF FF FF FF FF FF FF FF FF FF FF FF FF FF       ................
00BE80: FF FF FF FF FF FF FF FF FF FF FF FF FF FF FF FF       ................
00BE90: FF FF FF FF FF FF FF FF FF FF FF FF FF FF FF FF       ................
00BEA0: FF FF FF FF FF FF FF FF FF FF FF FF FF FF FF FF       ................
00BEB0: FF FF FF FF FF FF FF FF FF FF FF FF FF FF FF FF       ................
00BEC0: FF FF FF FF FF FF FF FF FF FF FF FF FF FF FF FF       ................
00BED0: FF FF FF FF FF FF FF FF FF FF FF FF FF FF FF FF       ................
00BEE0: FF FF FF FF FF FF FF FF FF FF FF FF FF FF FF FF       ................
00BEF0: FF FF FF FF FF FF FF FF FF FF FF FF FF FF FF FF       ................
00BF00: FF FF FF FF FF FF FF FF FF FF FF FF FF FF FF FF       ................
00BF10: FF FF FF FF FF FF FF FF FF FF FF FF FF FF FF FF       ................
00BF20: FF FF FF FF FF FF FF FF FF FF FF FF FF FF FF FF       ................
00BF30: FF FF FF FF FF FF FF FF FF FF FF FF FF FF FF FF       ................
00BF40: FF FF FF FF FF FF FF FF FF FF FF FF FF FF FF FF       ................
00BF50: FF FF FF FF FF FF FF FF FF FF FF FF FF FF FF FF       ................
00BF60: FF FF FF FF FF FF FF FF FF FF FF FF FF FF FF FF       ................
00BF70: FF FF FF FF FF FF FF FF FF FF FF FF FF FF FF FF       ................
00BF80: FF FF FF FF FF FF FF FF FF FF FF FF FF FF FF FF       ................
00BF90: FF FF FF FF FF FF FF FF FF FF FF FF FF FF FF FF       ................
00BFA0: FF FF FF FF FF FF FF FF FF FF FF FF FF FF FF FF       ................
00BFB0: FF FF FF FF FF FF FF FF FF FF FF FF FF FF FF FF       ................
00BFC0: FF FF FF FF FF FF FF FF FF FF FF FF FF FF FF FF       ................
00BFD0: FF FF FF FF FF FF FF FF FF FF FF FF FF FF FF FF       ................
00BFE0: FF FF FF FF FF FF FF FF FF FF FF FF FF FF FF FF       ................
00BFF0: FF FF FF FF FF FF FF FF FF FF FF FF FF FF FF FF       ................
00C000: FF FF FF FF FF FF FF FF FF FF FF FF FF FF FF FF       ................
00C010: FF FF FF FF FF FF FF FF FF FF FF FF FF FF FF FF       ................
00C020: FF FF FF FF FF FF FF FF FF FF FF FF FF FF FF FF       ................
00C030: FF FF FF FF FF FF FF FF FF FF FF FF FF FF FF FF       ................
00C040: FF FF FF FF FF FF FF FF FF FF FF FF FF FF FF FF       ................
00C050: FF FF FF FF FF FF FF FF FF FF FF FF FF FF FF FF       ................
00C060: FF FF FF FF FF FF FF FF FF FF FF FF FF FF FF FF       ................
00C070: FF FF FF FF FF FF FF FF FF FF FF FF FF FF FF FF       ................
00C080: FF FF FF FF FF FF FF FF FF FF FF FF FF FF FF FF       ................
00C090: FF FF FF FF FF FF FF FF FF FF FF FF FF FF FF FF       ................
00C0A0: FF FF FF FF FF FF FF FF FF FF FF FF FF FF FF FF       ................
00C0B0: FF FF FF FF FF FF FF FF FF FF FF FF FF FF FF FF       ................
00C0C0: FF FF FF FF FF FF FF FF FF FF FF FF FF FF FF FF       ................
00C0D0: FF FF FF FF FF FF FF FF FF FF FF FF FF FF FF FF       ................
00C0E0: FF FF FF FF FF FF FF FF FF FF FF FF FF FF FF FF       ................
00C0F0: FF FF FF FF FF FF FF FF FF FF FF FF FF FF FF FF       ................
00C100: FF FF FF FF FF FF FF FF FF FF FF FF FF FF FF FF       ................
00C110: FF FF FF FF FF FF FF FF FF FF FF FF FF FF FF FF       ................
00C120: FF FF FF FF FF FF FF FF FF FF FF FF FF FF FF FF       ................
00C130: FF FF FF FF FF FF FF FF FF FF FF FF FF FF FF FF       ................
00C140: FF FF FF FF FF FF FF FF FF FF FF FF FF FF FF FF       ................
00C150: FF FF FF FF FF FF FF FF FF FF FF FF FF FF FF FF       ................
00C160: FF FF FF FF FF FF FF FF FF FF FF FF FF FF FF FF       ................
00C170: FF FF FF FF FF FF FF FF FF FF FF FF FF FF FF FF       ................
00C180: FF FF FF FF FF FF FF FF FF FF FF FF FF FF FF FF       ................
00C190: FF FF FF FF FF FF FF FF FF FF FF FF FF FF FF FF       ................
00C1A0: FF FF FF FF FF FF FF FF FF FF FF FF FF FF FF FF       ................
00C1B0: FF FF FF FF FF FF FF FF FF FF FF FF FF FF FF FF       ................
00C1C0: FF FF FF FF FF FF FF FF FF FF FF FF FF FF FF FF       ................
00C1D0: FF FF FF FF FF FF FF FF FF FF FF FF FF FF FF FF       ................
00C1E0: FF FF FF FF FF FF FF FF FF FF FF FF FF FF FF FF       ................
00C1F0: FF FF FF FF FF FF FF FF FF FF FF FF FF FF FF FF       ................
00C200: FF FF FF FF FF FF FF FF FF FF FF FF FF FF FF FF       ................
00C210: FF FF FF FF FF FF FF FF FF FF FF FF FF FF FF FF       ................
00C220: FF FF FF FF FF FF FF FF FF FF FF FF FF FF FF FF       ................
00C230: FF FF FF FF FF FF FF FF FF FF FF FF FF FF FF FF       ................
00C240: FF FF FF FF FF FF FF FF FF FF FF FF FF FF FF FF       ................
00C250: FF FF FF FF FF FF FF FF FF FF FF FF FF FF FF FF       ................
00C260: FF FF FF FF FF FF FF FF FF FF FF FF FF FF FF FF       ................
00C270: FF FF FF FF FF FF FF FF FF FF FF FF FF FF FF FF       ................
00C280: FF FF FF FF FF FF FF FF FF FF FF FF FF FF FF FF       ................
00C290: FF FF FF FF FF FF FF FF FF FF FF FF FF FF FF FF       ................
00C2A0: FF FF FF FF FF FF FF FF FF FF FF FF FF FF FF FF       ................
00C2B0: FF FF FF FF FF FF FF FF FF FF FF FF FF FF FF FF       ................
00C2C0: FF FF FF FF FF FF FF FF FF FF FF FF FF FF FF FF       ................
00C2D0: FF FF FF FF FF FF FF FF FF FF FF FF FF FF FF FF       ................
00C2E0: FF FF FF FF FF FF FF FF FF FF FF FF FF FF FF FF       ................
00C2F0: FF FF FF FF FF FF FF FF FF FF FF FF FF FF FF FF       ................
00C300: FF FF FF FF FF FF FF FF FF FF FF FF FF FF FF FF       ................
00C310: FF FF FF FF FF FF FF FF FF FF FF FF FF FF FF FF       ................
00C320: FF FF FF FF FF FF FF FF FF FF FF FF FF FF FF FF       ................
00C330: FF FF FF FF FF FF FF FF FF FF FF FF FF FF FF FF       ................
00C340: FF FF FF FF FF FF FF FF FF FF FF FF FF FF FF FF       ................
00C350: FF FF FF FF FF FF FF FF FF FF FF FF FF FF FF FF       ................
00C360: FF FF FF FF FF FF FF FF FF FF FF FF FF FF FF FF       ................
00C370: FF FF FF FF FF FF FF FF FF FF FF FF FF FF FF FF       ................
00C380: FF FF FF FF FF FF FF FF FF FF FF FF FF FF FF FF       ................
00C390: FF FF FF FF FF FF FF FF FF FF FF FF FF FF FF FF       ................
00C3A0: FF FF FF FF FF FF FF FF FF FF FF FF FF FF FF FF       ................
00C3B0: FF FF FF FF FF FF FF FF FF FF FF FF FF FF FF FF       ................
00C3C0: FF FF FF FF FF FF FF FF FF FF FF FF FF FF FF FF       ................
00C3D0: FF FF FF FF FF FF FF FF FF FF FF FF FF FF FF FF       ................
00C3E0: FF FF FF FF FF FF FF FF FF FF FF FF FF FF FF FF       ................
00C3F0: FF FF FF FF FF FF FF FF FF FF FF FF FF FF FF FF       ................
00C400: FF FF FF FF FF FF FF FF FF FF FF FF FF FF FF FF       ................
00C410: FF FF FF FF FF FF FF FF FF FF FF FF FF FF FF FF       ................
00C420: FF FF FF FF FF FF FF FF FF FF FF FF FF FF FF FF       ................
00C430: FF FF FF FF FF FF FF FF FF FF FF FF FF FF FF FF       ................
00C440: FF FF FF FF FF FF FF FF FF FF FF FF FF FF FF FF       ................
00C450: FF FF FF FF FF FF FF FF FF FF FF FF FF FF FF FF       ................
00C460: FF FF FF FF FF FF FF FF FF FF FF FF FF FF FF FF       ................
00C470: FF FF FF FF FF FF FF FF FF FF FF FF FF FF FF FF       ................
00C480: FF FF FF FF FF FF FF FF FF FF FF FF FF FF FF FF       ................
00C490: FF FF FF FF FF FF FF FF FF FF FF FF FF FF FF FF       ................
00C4A0: FF FF FF FF FF FF FF FF FF FF FF FF FF FF FF FF       ................
00C4B0: FF FF FF FF FF FF FF FF FF FF FF FF FF FF FF FF       ................
00C4C0: FF FF FF FF FF FF FF FF FF FF FF FF FF FF FF FF       ................
00C4D0: FF FF FF FF FF FF FF FF FF FF FF FF FF FF FF FF       ................
00C4E0: FF FF FF FF FF FF FF FF FF FF FF FF FF FF FF FF       ................
00C4F0: FF FF FF FF FF FF FF FF FF FF FF FF FF FF FF FF       ................
00C500: FF FF FF FF FF FF FF FF FF FF FF FF FF FF FF FF       ................
00C510: FF FF FF FF FF FF FF FF FF FF FF FF FF FF FF FF       ................
00C520: FF FF FF FF FF FF FF FF FF FF FF FF FF FF FF FF       ................
00C530: FF FF FF FF FF FF FF FF FF FF FF FF FF FF FF FF       ................
00C540: FF FF FF FF FF FF FF FF FF FF FF FF FF FF FF FF       ................
00C550: FF FF FF FF FF FF FF FF FF FF FF FF FF FF FF FF       ................
00C560: FF FF FF FF FF FF FF FF FF FF FF FF FF FF FF FF       ................
00C570: FF FF FF FF FF FF FF FF FF FF FF FF FF FF FF FF       ................
00C580: FF FF FF FF FF FF FF FF FF FF FF FF FF FF FF FF       ................
00C590: FF FF FF FF FF FF FF FF FF FF FF FF FF FF FF FF       ................
00C5A0: FF FF FF FF FF FF FF FF FF FF FF FF FF FF FF FF       ................
00C5B0: FF FF FF FF FF FF FF FF FF FF FF FF FF FF FF FF       ................
00C5C0: FF FF FF FF FF FF FF FF FF FF FF FF FF FF FF FF       ................
00C5D0: FF FF FF FF FF FF FF FF FF FF FF FF FF FF FF FF       ................
00C5E0: FF FF FF FF FF FF FF FF FF FF FF FF FF FF FF FF       ................
00C5F0: FF FF FF FF FF FF FF FF FF FF FF FF FF FF FF FF       ................
00C600: FF FF FF FF FF FF FF FF FF FF FF FF FF FF FF FF       ................
00C610: FF FF FF FF FF FF FF FF FF FF FF FF FF FF FF FF       ................
00C620: FF FF FF FF FF FF FF FF FF FF FF FF FF FF FF FF       ................
00C630: FF FF FF FF FF FF FF FF FF FF FF FF FF FF FF FF       ................
00C640: FF FF FF FF FF FF FF FF FF FF FF FF FF FF FF FF       ................
00C650: FF FF FF FF FF FF FF FF FF FF FF FF FF FF FF FF       ................
00C660: FF FF FF FF FF FF FF FF FF FF FF FF FF FF FF FF       ................
00C670: FF FF FF FF FF FF FF FF FF FF FF FF FF FF FF FF       ................
00C680: FF FF FF FF FF FF FF FF FF FF FF FF FF FF FF FF       ................
00C690: FF FF FF FF FF FF FF FF FF FF FF FF FF FF FF FF       ................
00C6A0: FF FF FF FF FF FF FF FF FF FF FF FF FF FF FF FF       ................
00C6B0: FF FF FF FF FF FF FF FF FF FF FF FF FF FF FF FF       ................
00C6C0: FF FF FF FF FF FF FF FF FF FF FF FF FF FF FF FF       ................
00C6D0: FF FF FF FF FF FF FF FF FF FF FF FF FF FF FF FF       ................
00C6E0: FF FF FF FF FF FF FF FF FF FF FF FF FF FF FF FF       ................
00C6F0: FF FF FF FF FF FF FF FF FF FF FF FF FF FF FF FF       ................
00C700: FF FF FF FF FF FF FF FF FF FF FF FF FF FF FF FF       ................
00C710: FF FF FF FF FF FF FF FF FF FF FF FF FF FF FF FF       ................
00C720: FF FF FF FF FF FF FF FF FF FF FF FF FF FF FF FF       ................
00C730: FF FF FF FF FF FF FF FF FF FF FF FF FF FF FF FF       ................
00C740: FF FF FF FF FF FF FF FF FF FF FF FF FF FF FF FF       ................
00C750: FF FF FF FF FF FF FF FF FF FF FF FF FF FF FF FF       ................
00C760: FF FF FF FF FF FF FF FF FF FF FF FF FF FF FF FF       ................
00C770: FF FF FF FF FF FF FF FF FF FF FF FF FF FF FF FF       ................
00C780: FF FF FF FF FF FF FF FF FF FF FF FF FF FF FF FF       ................
00C790: FF FF FF FF FF FF FF FF FF FF FF FF FF FF FF FF       ................
00C7A0: FF FF FF FF FF FF FF FF FF FF FF FF FF FF FF FF       ................
00C7B0: FF FF FF FF FF FF FF FF FF FF FF FF FF FF FF FF       ................
00C7C0: FF FF FF FF FF FF FF FF FF FF FF FF FF FF FF FF       ................
00C7D0: FF FF FF FF FF FF FF FF FF FF FF FF FF FF FF FF       ................
00C7E0: FF FF FF FF FF FF FF FF FF FF FF FF FF FF FF FF       ................
00C7F0: FF FF FF FF FF FF FF FF FF FF FF FF FF FF FF FF       ................
00C800: FF FF FF FF FF FF FF FF FF FF FF FF FF FF FF FF       ................
00C810: FF FF FF FF FF FF FF FF FF FF FF FF FF FF FF FF       ................
00C820: FF FF FF FF FF FF FF FF FF FF FF FF FF FF FF FF       ................
00C830: FF FF FF FF FF FF FF FF FF FF FF FF FF FF FF FF       ................
00C840: FF FF FF FF FF FF FF FF FF FF FF FF FF FF FF FF       ................
00C850: FF FF FF FF FF FF FF FF FF FF FF FF FF FF FF FF       ................
00C860: FF FF FF FF FF FF FF FF FF FF FF FF FF FF FF FF       ................
00C870: FF FF FF FF FF FF FF FF FF FF FF FF FF FF FF FF       ................
00C880: FF FF FF FF FF FF FF FF FF FF FF FF FF FF FF FF       ................
00C890: FF FF FF FF FF FF FF FF FF FF FF FF FF FF FF FF       ................
00C8A0: FF FF FF FF FF FF FF FF FF FF FF FF FF FF FF FF       ................
00C8B0: FF FF FF FF FF FF FF FF FF FF FF FF FF FF FF FF       ................
00C8C0: FF FF FF FF FF FF FF FF FF FF FF FF FF FF FF FF       ................
00C8D0: FF FF FF FF FF FF FF FF FF FF FF FF FF FF FF FF       ................
00C8E0: FF FF FF FF FF FF FF FF FF FF FF FF FF FF FF FF       ................
00C8F0: FF FF FF FF FF FF FF FF FF FF FF FF FF FF FF FF       ................
00C900: FF FF FF FF FF FF FF FF FF FF FF FF FF FF FF FF       ................
00C910: FF FF FF FF FF FF FF FF FF FF FF FF FF FF FF FF       ................
00C920: FF FF FF FF FF FF FF FF FF FF FF FF FF FF FF FF       ................
00C930: FF FF FF FF FF FF FF FF FF FF FF FF FF FF FF FF       ................
00C940: FF FF FF FF FF FF FF FF FF FF FF FF FF FF FF FF       ................
00C950: FF FF FF FF FF FF FF FF FF FF FF FF FF FF FF FF       ................
00C960: FF FF FF FF FF FF FF FF FF FF FF FF FF FF FF FF       ................
00C970: FF FF FF FF FF FF FF FF FF FF FF FF FF FF FF FF       ................
00C980: FF FF FF FF FF FF FF FF FF FF FF FF FF FF FF FF       ................
00C990: FF FF FF FF FF FF FF FF FF FF FF FF FF FF FF FF       ................
00C9A0: FF FF FF FF FF FF FF FF FF FF FF FF FF FF FF FF       ................
00C9B0: FF FF FF FF FF FF FF FF FF FF FF FF FF FF FF FF       ................
00C9C0: FF FF FF FF FF FF FF FF FF FF FF FF FF FF FF FF       ................
00C9D0: FF FF FF FF FF FF FF FF FF FF FF FF FF FF FF FF       ................
00C9E0: FF FF FF FF FF FF FF FF FF FF FF FF FF FF FF FF       ................
00C9F0: FF FF FF FF FF FF FF FF FF FF FF FF FF FF FF FF       ................
00CA00: FF FF FF FF FF FF FF FF FF FF FF FF FF FF FF FF       ................
00CA10: FF FF FF FF FF FF FF FF FF FF FF FF FF FF FF FF       ................
00CA20: FF FF FF FF FF FF FF FF FF FF FF FF FF FF FF FF       ................
00CA30: FF FF FF FF FF FF FF FF FF FF FF FF FF FF FF FF       ................
00CA40: FF FF FF FF FF FF FF FF FF FF FF FF FF FF FF FF       ................
00CA50: FF FF FF FF FF FF FF FF FF FF FF FF FF FF FF FF       ................
00CA60: FF FF FF FF FF FF FF FF FF FF FF FF FF FF FF FF       ................
00CA70: FF FF FF FF FF FF FF FF FF FF FF FF FF FF FF FF       ................
00CA80: FF FF FF FF FF FF FF FF FF FF FF FF FF FF FF FF       ................
00CA90: FF FF FF FF FF FF FF FF FF FF FF FF FF FF FF FF       ................
00CAA0: FF FF FF FF FF FF FF FF FF FF FF FF FF FF FF FF       ................
00CAB0: FF FF FF FF FF FF FF FF FF FF FF FF FF FF FF FF       ................
00CAC0: FF FF FF FF FF FF FF FF FF FF FF FF FF FF FF FF       ................
00CAD0: FF FF FF FF FF FF FF FF FF FF FF FF FF FF FF FF       ................
00CAE0: FF FF FF FF FF FF FF FF FF FF FF FF FF FF FF FF       ................
00CAF0: FF FF FF FF FF FF FF FF FF FF FF FF FF FF FF FF       ................
00CB00: FF FF FF FF FF FF FF FF FF FF FF FF FF FF FF FF       ................
00CB10: FF FF FF FF FF FF FF FF FF FF FF FF FF FF FF FF       ................
00CB20: FF FF FF FF FF FF FF FF FF FF FF FF FF FF FF FF       ................
00CB30: FF FF FF FF FF FF FF FF FF FF FF FF FF FF FF FF       ................
00CB40: FF FF FF FF FF FF FF FF FF FF FF FF FF FF FF FF       ................
00CB50: FF FF FF FF FF FF FF FF FF FF FF FF FF FF FF FF       ................
00CB60: FF FF FF FF FF FF FF FF FF FF FF FF FF FF FF FF       ................
00CB70: FF FF FF FF FF FF FF FF FF FF FF FF FF FF FF FF       ................
00CB80: FF FF FF FF FF FF FF FF FF FF FF FF FF FF FF FF       ................
00CB90: FF FF FF FF FF FF FF FF FF FF FF FF FF FF FF FF       ................
00CBA0: FF FF FF FF FF FF FF FF FF FF FF FF FF FF FF FF       ................
00CBB0: FF FF FF FF FF FF FF FF FF FF FF FF FF FF FF FF       ................
00CBC0: FF FF FF FF FF FF FF FF FF FF FF FF FF FF FF FF       ................
00CBD0: FF FF FF FF FF FF FF FF FF FF FF FF FF FF FF FF       ................
00CBE0: FF FF FF FF FF FF FF FF FF FF FF FF FF FF FF FF       ................
00CBF0: FF FF FF FF FF FF FF FF FF FF FF FF FF FF FF FF       ................
00CC00: FF FF FF FF FF FF FF FF FF FF FF FF FF FF FF FF       ................
00CC10: FF FF FF FF FF FF FF FF FF FF FF FF FF FF FF FF       ................
00CC20: FF FF FF FF FF FF FF FF FF FF FF FF FF FF FF FF       ................
00CC30: FF FF FF FF FF FF FF FF FF FF FF FF FF FF FF FF       ................
00CC40: FF FF FF FF FF FF FF FF FF FF FF FF FF FF FF FF       ................
00CC50: FF FF FF FF FF FF FF FF FF FF FF FF FF FF FF FF       ................
00CC60: FF FF FF FF FF FF FF FF FF FF FF FF FF FF FF FF       ................
00CC70: FF FF FF FF FF FF FF FF FF FF FF FF FF FF FF FF       ................
00CC80: FF FF FF FF FF FF FF FF FF FF FF FF FF FF FF FF       ................
00CC90: FF FF FF FF FF FF FF FF FF FF FF FF FF FF FF FF       ................
00CCA0: FF FF FF FF FF FF FF FF FF FF FF FF FF FF FF FF       ................
00CCB0: FF FF FF FF FF FF FF FF FF FF FF FF FF FF FF FF       ................
00CCC0: FF FF FF FF FF FF FF FF FF FF FF FF FF FF FF FF       ................
00CCD0: FF FF FF FF FF FF FF FF FF FF FF FF FF FF FF FF       ................
00CCE0: FF FF FF FF FF FF FF FF FF FF FF FF FF FF FF FF       ................
00CCF0: FF FF FF FF FF FF FF FF FF FF FF FF FF FF FF FF       ................
00CD00: FF FF FF FF FF FF FF FF FF FF FF FF FF FF FF FF       ................
00CD10: FF FF FF FF FF FF FF FF FF FF FF FF FF FF FF FF       ................
00CD20: FF FF FF FF FF FF FF FF FF FF FF FF FF FF FF FF       ................
00CD30: FF FF FF FF FF FF FF FF FF FF FF FF FF FF FF FF       ................
00CD40: FF FF FF FF FF FF FF FF FF FF FF FF FF FF FF FF       ................
00CD50: FF FF FF FF FF FF FF FF FF FF FF FF FF FF FF FF       ................
00CD60: FF FF FF FF FF FF FF FF FF FF FF FF FF FF FF FF       ................
00CD70: FF FF FF FF FF FF FF FF FF FF FF FF FF FF FF FF       ................
00CD80: FF FF FF FF FF FF FF FF FF FF FF FF FF FF FF FF       ................
00CD90: FF FF FF FF FF FF FF FF FF FF FF FF FF FF FF FF       ................
00CDA0: FF FF FF FF FF FF FF FF FF FF FF FF FF FF FF FF       ................
00CDB0: FF FF FF FF FF FF FF FF FF FF FF FF FF FF FF FF       ................
00CDC0: FF FF FF FF FF FF FF FF FF FF FF FF FF FF FF FF       ................
00CDD0: FF FF FF FF FF FF FF FF FF FF FF FF FF FF FF FF       ................
00CDE0: FF FF FF FF FF FF FF FF FF FF FF FF FF FF FF FF       ................
00CDF0: FF FF FF FF FF FF FF FF FF FF FF FF FF FF FF FF       ................
00CE00: FF FF FF FF FF FF FF FF FF FF FF FF FF FF FF FF       ................
00CE10: FF FF FF FF FF FF FF FF FF FF FF FF FF FF FF FF       ................
00CE20: FF FF FF FF FF FF FF FF FF FF FF FF FF FF FF FF       ................
00CE30: FF FF FF FF FF FF FF FF FF FF FF FF FF FF FF FF       ................
00CE40: FF FF FF FF FF FF FF FF FF FF FF FF FF FF FF FF       ................
00CE50: FF FF FF FF FF FF FF FF FF FF FF FF FF FF FF FF       ................
00CE60: FF FF FF FF FF FF FF FF FF FF FF FF FF FF FF FF       ................
00CE70: FF FF FF FF FF FF FF FF FF FF FF FF FF FF FF FF       ................
00CE80: FF FF FF FF FF FF FF FF FF FF FF FF FF FF FF FF       ................
00CE90: FF FF FF FF FF FF FF FF FF FF FF FF FF FF FF FF       ................
00CEA0: FF FF FF FF FF FF FF FF FF FF FF FF FF FF FF FF       ................
00CEB0: FF FF FF FF FF FF FF FF FF FF FF FF FF FF FF FF       ................
00CEC0: FF FF FF FF FF FF FF FF FF FF FF FF FF FF FF FF       ................
00CED0: FF FF FF FF FF FF FF FF FF FF FF FF FF FF FF FF       ................
00CEE0: FF FF FF FF FF FF FF FF FF FF FF FF FF FF FF FF       ................
00CEF0: FF FF FF FF FF FF FF FF FF FF FF FF FF FF FF FF       ................
00CF00: FF FF FF FF FF FF FF FF FF FF FF FF FF FF FF FF       ................
00CF10: FF FF FF FF FF FF FF FF FF FF FF FF FF FF FF FF       ................
00CF20: FF FF FF FF FF FF FF FF FF FF FF FF FF FF FF FF       ................
00CF30: FF FF FF FF FF FF FF FF FF FF FF FF FF FF FF FF       ................
00CF40: FF FF FF FF FF FF FF FF FF FF FF FF FF FF FF FF       ................
00CF50: FF FF FF FF FF FF FF FF FF FF FF FF FF FF FF FF       ................
00CF60: FF FF FF FF FF FF FF FF FF FF FF FF FF FF FF FF       ................
00CF70: FF FF FF FF FF FF FF FF FF FF FF FF FF FF FF FF       ................
00CF80: FF FF FF FF FF FF FF FF FF FF FF FF FF FF FF FF       ................
00CF90: FF FF FF FF FF FF FF FF FF FF FF FF FF FF FF FF       ................
00CFA0: FF FF FF FF FF FF FF FF FF FF FF FF FF FF FF FF       ................
00CFB0: FF FF FF FF FF FF FF FF FF FF FF FF FF FF FF FF       ................
00CFC0: FF FF FF FF FF FF FF FF FF FF FF FF FF FF FF FF       ................
00CFD0: FF FF FF FF FF FF FF FF FF FF FF FF FF FF FF FF       ................
00CFE0: FF FF FF FF FF FF FF FF FF FF FF FF FF FF FF FF       ................
00CFF0: FF FF FF FF FF FF FF FF FF FF FF FF FF FF FF FF       ................
00D000: FF FF FF FF FF FF FF FF FF FF FF FF FF FF FF FF       ................
00D010: FF FF FF FF FF FF FF FF FF FF FF FF FF FF FF FF       ................
00D020: FF FF FF FF FF FF FF FF FF FF FF FF FF FF FF FF       ................
00D030: FF FF FF FF FF FF FF FF FF FF FF FF FF FF FF FF       ................
00D040: FF FF FF FF FF FF FF FF FF FF FF FF FF FF FF FF       ................
00D050: FF FF FF FF FF FF FF FF FF FF FF FF FF FF FF FF       ................
00D060: FF FF FF FF FF FF FF FF FF FF FF FF FF FF FF FF       ................
00D070: FF FF FF FF FF FF FF FF FF FF FF FF FF FF FF FF       ................
00D080: FF FF FF FF FF FF FF FF FF FF FF FF FF FF FF FF       ................
00D090: FF FF FF FF FF FF FF FF FF FF FF FF FF FF FF FF       ................
00D0A0: FF FF FF FF FF FF FF FF FF FF FF FF FF FF FF FF       ................
00D0B0: FF FF FF FF FF FF FF FF FF FF FF FF FF FF FF FF       ................
00D0C0: FF FF FF FF FF FF FF FF FF FF FF FF FF FF FF FF       ................
00D0D0: FF FF FF FF FF FF FF FF FF FF FF FF FF FF FF FF       ................
00D0E0: FF FF FF FF FF FF FF FF FF FF FF FF FF FF FF FF       ................
00D0F0: FF FF FF FF FF FF FF FF FF FF FF FF FF FF FF FF       ................
00D100: FF FF FF FF FF FF FF FF FF FF FF FF FF FF FF FF       ................
00D110: FF FF FF FF FF FF FF FF FF FF FF FF FF FF FF FF       ................
00D120: FF FF FF FF FF FF FF FF FF FF FF FF FF FF FF FF       ................
00D130: FF FF FF FF FF FF FF FF FF FF FF FF FF FF FF FF       ................
00D140: FF FF FF FF FF FF FF FF FF FF FF FF FF FF FF FF       ................
00D150: FF FF FF FF FF FF FF FF FF FF FF FF FF FF FF FF       ................
00D160: FF FF FF FF FF FF FF FF FF FF FF FF FF FF FF FF       ................
00D170: FF FF FF FF FF FF FF FF FF FF FF FF FF FF FF FF       ................
00D180: FF FF FF FF FF FF FF FF FF FF FF FF FF FF FF FF       ................
00D190: FF FF FF FF FF FF FF FF FF FF FF FF FF FF FF FF       ................
00D1A0: FF FF FF FF FF FF FF FF FF FF FF FF FF FF FF FF       ................
00D1B0: FF FF FF FF FF FF FF FF FF FF FF FF FF FF FF FF       ................
00D1C0: FF FF FF FF FF FF FF FF FF FF FF FF FF FF FF FF       ................
00D1D0: FF FF FF FF FF FF FF FF FF FF FF FF FF FF FF FF       ................
00D1E0: FF FF FF FF FF FF FF FF FF FF FF FF FF FF FF FF       ................
00D1F0: FF FF FF FF FF FF FF FF FF FF FF FF FF FF FF FF       ................
00D200: FF FF FF FF FF FF FF FF FF FF FF FF FF FF FF FF       ................
00D210: FF FF FF FF FF FF FF FF FF FF FF FF FF FF FF FF       ................
00D220: FF FF FF FF FF FF FF FF FF FF FF FF FF FF FF FF       ................
00D230: FF FF FF FF FF FF FF FF FF FF FF FF FF FF FF FF       ................
00D240: FF FF FF FF FF FF FF FF FF FF FF FF FF FF FF FF       ................
00D250: FF FF FF FF FF FF FF FF FF FF FF FF FF FF FF FF       ................
00D260: FF FF FF FF FF FF FF FF FF FF FF FF FF FF FF FF       ................
00D270: FF FF FF FF FF FF FF FF FF FF FF FF FF FF FF FF       ................
00D280: FF FF FF FF FF FF FF FF FF FF FF FF FF FF FF FF       ................
00D290: FF FF FF FF FF FF FF FF FF FF FF FF FF FF FF FF       ................
00D2A0: FF FF FF FF FF FF FF FF FF FF FF FF FF FF FF FF       ................
00D2B0: FF FF FF FF FF FF FF FF FF FF FF FF FF FF FF FF       ................
00D2C0: FF FF FF FF FF FF FF FF FF FF FF FF FF FF FF FF       ................
00D2D0: FF FF FF FF FF FF FF FF FF FF FF FF FF FF FF FF       ................
00D2E0: FF FF FF FF FF FF FF FF FF FF FF FF FF FF FF FF       ................
00D2F0: FF FF FF FF FF FF FF FF FF FF FF FF FF FF FF FF       ................
00D300: FF FF FF FF FF FF FF FF FF FF FF FF FF FF FF FF       ................
00D310: FF FF FF FF FF FF FF FF FF FF FF FF FF FF FF FF       ................
00D320: FF FF FF FF FF FF FF FF FF FF FF FF FF FF FF FF       ................
00D330: FF FF FF FF FF FF FF FF FF FF FF FF FF FF FF FF       ................
00D340: FF FF FF FF FF FF FF FF FF FF FF FF FF FF FF FF       ................
00D350: FF FF FF FF FF FF FF FF FF FF FF FF FF FF FF FF       ................
00D360: FF FF FF FF FF FF FF FF FF FF FF FF FF FF FF FF       ................
00D370: FF FF FF FF FF FF FF FF FF FF FF FF FF FF FF FF       ................
00D380: FF FF FF FF FF FF FF FF FF FF FF FF FF FF FF FF       ................
00D390: FF FF FF FF FF FF FF FF FF FF FF FF FF FF FF FF       ................
00D3A0: FF FF FF FF FF FF FF FF FF FF FF FF FF FF FF FF       ................
00D3B0: FF FF FF FF FF FF FF FF FF FF FF FF FF FF FF FF       ................
00D3C0: FF FF FF FF FF FF FF FF FF FF FF FF FF FF FF FF       ................
00D3D0: FF FF FF FF FF FF FF FF FF FF FF FF FF FF FF FF       ................
00D3E0: FF FF FF FF FF FF FF FF FF FF FF FF FF FF FF FF       ................
00D3F0: FF FF FF FF FF FF FF FF FF FF FF FF FF FF FF FF       ................
00D400: FF FF FF FF FF FF FF FF FF FF FF FF FF FF FF FF       ................
00D410: FF FF FF FF FF FF FF FF FF FF FF FF FF FF FF FF       ................
00D420: FF FF FF FF FF FF FF FF FF FF FF FF FF FF FF FF       ................
00D430: FF FF FF FF FF FF FF FF FF FF FF FF FF FF FF FF       ................
00D440: FF FF FF FF FF FF FF FF FF FF FF FF FF FF FF FF       ................
00D450: FF FF FF FF FF FF FF FF FF FF FF FF FF FF FF FF       ................
00D460: FF FF FF FF FF FF FF FF FF FF FF FF FF FF FF FF       ................
00D470: FF FF FF FF FF FF FF FF FF FF FF FF FF FF FF FF       ................
00D480: FF FF FF FF FF FF FF FF FF FF FF FF FF FF FF FF       ................
00D490: FF FF FF FF FF FF FF FF FF FF FF FF FF FF FF FF       ................
00D4A0: FF FF FF FF FF FF FF FF FF FF FF FF FF FF FF FF       ................
00D4B0: FF FF FF FF FF FF FF FF FF FF FF FF FF FF FF FF       ................
00D4C0: FF FF FF FF FF FF FF FF FF FF FF FF FF FF FF FF       ................
00D4D0: FF FF FF FF FF FF FF FF FF FF FF FF FF FF FF FF       ................
00D4E0: FF FF FF FF FF FF FF FF FF FF FF FF FF FF FF FF       ................
00D4F0: FF FF FF FF FF FF FF FF FF FF FF FF FF FF FF FF       ................
00D500: FF FF FF FF FF FF FF FF FF FF FF FF FF FF FF FF       ................
00D510: FF FF FF FF FF FF FF FF FF FF FF FF FF FF FF FF       ................
00D520: FF FF FF FF FF FF FF FF FF FF FF FF FF FF FF FF       ................
00D530: FF FF FF FF FF FF FF FF FF FF FF FF FF FF FF FF       ................
00D540: FF FF FF FF FF FF FF FF FF FF FF FF FF FF FF FF       ................
00D550: FF FF FF FF FF FF FF FF FF FF FF FF FF FF FF FF       ................
00D560: FF FF FF FF FF FF FF FF FF FF FF FF FF FF FF FF       ................
00D570: FF FF FF FF FF FF FF FF FF FF FF FF FF FF FF FF       ................
00D580: FF FF FF FF FF FF FF FF FF FF FF FF FF FF FF FF       ................
00D590: FF FF FF FF FF FF FF FF FF FF FF FF FF FF FF FF       ................
00D5A0: FF FF FF FF FF FF FF FF FF FF FF FF FF FF FF FF       ................
00D5B0: FF FF FF FF FF FF FF FF FF FF FF FF FF FF FF FF       ................
00D5C0: FF FF FF FF FF FF FF FF FF FF FF FF FF FF FF FF       ................
00D5D0: FF FF FF FF FF FF FF FF FF FF FF FF FF FF FF FF       ................
00D5E0: FF FF FF FF FF FF FF FF FF FF FF FF FF FF FF FF       ................
00D5F0: FF FF FF FF FF FF FF FF FF FF FF FF FF FF FF FF       ................
00D600: FF FF FF FF FF FF FF FF FF FF FF FF FF FF FF FF       ................
00D610: FF FF FF FF FF FF FF FF FF FF FF FF FF FF FF FF       ................
00D620: FF FF FF FF FF FF FF FF FF FF FF FF FF FF FF FF       ................
00D630: FF FF FF FF FF FF FF FF FF FF FF FF FF FF FF FF       ................
00D640: FF FF FF FF FF FF FF FF FF FF FF FF FF FF FF FF       ................
00D650: FF FF FF FF FF FF FF FF FF FF FF FF FF FF FF FF       ................
00D660: FF FF FF FF FF FF FF FF FF FF FF FF FF FF FF FF       ................
00D670: FF FF FF FF FF FF FF FF FF FF FF FF FF FF FF FF       ................
00D680: FF FF FF FF FF FF FF FF FF FF FF FF FF FF FF FF       ................
00D690: FF FF FF FF FF FF FF FF FF FF FF FF FF FF FF FF       ................
00D6A0: FF FF FF FF FF FF FF FF FF FF FF FF FF FF FF FF       ................
00D6B0: FF FF FF FF FF FF FF FF FF FF FF FF FF FF FF FF       ................
00D6C0: FF FF FF FF FF FF FF FF FF FF FF FF FF FF FF FF       ................
00D6D0: FF FF FF FF FF FF FF FF FF FF FF FF FF FF FF FF       ................
00D6E0: FF FF FF FF FF FF FF FF FF FF FF FF FF FF FF FF       ................
00D6F0: FF FF FF FF FF FF FF FF FF FF FF FF FF FF FF FF       ................
00D700: FF FF FF FF FF FF FF FF FF FF FF FF FF FF FF FF       ................
00D710: FF FF FF FF FF FF FF FF FF FF FF FF FF FF FF FF       ................
00D720: FF FF FF FF FF FF FF FF FF FF FF FF FF FF FF FF       ................
00D730: FF FF FF FF FF FF FF FF FF FF FF FF FF FF FF FF       ................
00D740: FF FF FF FF FF FF FF FF FF FF FF FF FF FF FF FF       ................
00D750: FF FF FF FF FF FF FF FF FF FF FF FF FF FF FF FF       ................
00D760: FF FF FF FF FF FF FF FF FF FF FF FF FF FF FF FF       ................
00D770: FF FF FF FF FF FF FF FF FF FF FF FF FF FF FF FF       ................
00D780: FF FF FF FF FF FF FF FF FF FF FF FF FF FF FF FF       ................
00D790: FF FF FF FF FF FF FF FF FF FF FF FF FF FF FF FF       ................
00D7A0: FF FF FF FF FF FF FF FF FF FF FF FF FF FF FF FF       ................
00D7B0: FF FF FF FF FF FF FF FF FF FF FF FF FF FF FF FF       ................
00D7C0: FF FF FF FF FF FF FF FF FF FF FF FF FF FF FF FF       ................
00D7D0: FF FF FF FF FF FF FF FF FF FF FF FF FF FF FF FF       ................
00D7E0: FF FF FF FF FF FF FF FF FF FF FF FF FF FF FF FF       ................
00D7F0: FF FF FF FF FF FF FF FF FF FF FF FF FF FF FF FF       ................
00D800: FF FF FF FF FF FF FF FF FF FF FF FF FF FF FF FF       ................
00D810: FF FF FF FF FF FF FF FF FF FF FF FF FF FF FF FF       ................
00D820: FF FF FF FF FF FF FF FF FF FF FF FF FF FF FF FF       ................
00D830: FF FF FF FF FF FF FF FF FF FF FF FF FF FF FF FF       ................
00D840: FF FF FF FF FF FF FF FF FF FF FF FF FF FF FF FF       ................
00D850: FF FF FF FF FF FF FF FF FF FF FF FF FF FF FF FF       ................
00D860: FF FF FF FF FF FF FF FF FF FF FF FF FF FF FF FF       ................
00D870: FF FF FF FF FF FF FF FF FF FF FF FF FF FF FF FF       ................
00D880: FF FF FF FF FF FF FF FF FF FF FF FF FF FF FF FF       ................
00D890: FF FF FF FF FF FF FF FF FF FF FF FF FF FF FF FF       ................
00D8A0: FF FF FF FF FF FF FF FF FF FF FF FF FF FF FF FF       ................
00D8B0: FF FF FF FF FF FF FF FF FF FF FF FF FF FF FF FF       ................
00D8C0: FF FF FF FF FF FF FF FF FF FF FF FF FF FF FF FF       ................
00D8D0: FF FF FF FF FF FF FF FF FF FF FF FF FF FF FF FF       ................
00D8E0: FF FF FF FF FF FF FF FF FF FF FF FF FF FF FF FF       ................
00D8F0: FF FF FF FF FF FF FF FF FF FF FF FF FF FF FF FF       ................
00D900: FF FF FF FF FF FF FF FF FF FF FF FF FF FF FF FF       ................
00D910: FF FF FF FF FF FF FF FF FF FF FF FF FF FF FF FF       ................
00D920: FF FF FF FF FF FF FF FF FF FF FF FF FF FF FF FF       ................
00D930: FF FF FF FF FF FF FF FF FF FF FF FF FF FF FF FF       ................
00D940: FF FF FF FF FF FF FF FF FF FF FF FF FF FF FF FF       ................
00D950: FF FF FF FF FF FF FF FF FF FF FF FF FF FF FF FF       ................
00D960: FF FF FF FF FF FF FF FF FF FF FF FF FF FF FF FF       ................
00D970: FF FF FF FF FF FF FF FF FF FF FF FF FF FF FF FF       ................
00D980: FF FF FF FF FF FF FF FF FF FF FF FF FF FF FF FF       ................
00D990: FF FF FF FF FF FF FF FF FF FF FF FF FF FF FF FF       ................
00D9A0: FF FF FF FF FF FF FF FF FF FF FF FF FF FF FF FF       ................
00D9B0: FF FF FF FF FF FF FF FF FF FF FF FF FF FF FF FF       ................
00D9C0: FF FF FF FF FF FF FF FF FF FF FF FF FF FF FF FF       ................
00D9D0: FF FF FF FF FF FF FF FF FF FF FF FF FF FF FF FF       ................
00D9E0: FF FF FF FF FF FF FF FF FF FF FF FF FF FF FF FF       ................
00D9F0: FF FF FF FF FF FF FF FF FF FF FF FF FF FF FF FF       ................
00DA00: FF FF FF FF FF FF FF FF FF FF FF FF FF FF FF FF       ................
00DA10: FF FF FF FF FF FF FF FF FF FF FF FF FF FF FF FF       ................
00DA20: FF FF FF FF FF FF FF FF FF FF FF FF FF FF FF FF       ................
00DA30: FF FF FF FF FF FF FF FF FF FF FF FF FF FF FF FF       ................
00DA40: FF FF FF FF FF FF FF FF FF FF FF FF FF FF FF FF       ................
00DA50: FF FF FF FF FF FF FF FF FF FF FF FF FF FF FF FF       ................
00DA60: FF FF FF FF FF FF FF FF FF FF FF FF FF FF FF FF       ................
00DA70: FF FF FF FF FF FF FF FF FF FF FF FF FF FF FF FF       ................
00DA80: FF FF FF FF FF FF FF FF FF FF FF FF FF FF FF FF       ................
00DA90: FF FF FF FF FF FF FF FF FF FF FF FF FF FF FF FF       ................
00DAA0: FF FF FF FF FF FF FF FF FF FF FF FF FF FF FF FF       ................
00DAB0: FF FF FF FF FF FF FF FF FF FF FF FF FF FF FF FF       ................
00DAC0: FF FF FF FF FF FF FF FF FF FF FF FF FF FF FF FF       ................
00DAD0: FF FF FF FF FF FF FF FF FF FF FF FF FF FF FF FF       ................
00DAE0: FF FF FF FF FF FF FF FF FF FF FF FF FF FF FF FF       ................
00DAF0: FF FF FF FF FF FF FF FF FF FF FF FF FF FF FF FF       ................
00DB00: FF FF FF FF FF FF FF FF FF FF FF FF FF FF FF FF       ................
00DB10: FF FF FF FF FF FF FF FF FF FF FF FF FF FF FF FF       ................
00DB20: FF FF FF FF FF FF FF FF FF FF FF FF FF FF FF FF       ................
00DB30: FF FF FF FF FF FF FF FF FF FF FF FF FF FF FF FF       ................
00DB40: FF FF FF FF FF FF FF FF FF FF FF FF FF FF FF FF       ................
00DB50: FF FF FF FF FF FF FF FF FF FF FF FF FF FF FF FF       ................
00DB60: FF FF FF FF FF FF FF FF FF FF FF FF FF FF FF FF       ................
00DB70: FF FF FF FF FF FF FF FF FF FF FF FF FF FF FF FF       ................
00DB80: FF FF FF FF FF FF FF FF FF FF FF FF FF FF FF FF       ................
00DB90: FF FF FF FF FF FF FF FF FF FF FF FF FF FF FF FF       ................
00DBA0: FF FF FF FF FF FF FF FF FF FF FF FF FF FF FF FF       ................
00DBB0: FF FF FF FF FF FF FF FF FF FF FF FF FF FF FF FF       ................
00DBC0: FF FF FF FF FF FF FF FF FF FF FF FF FF FF FF FF       ................
00DBD0: FF FF FF FF FF FF FF FF FF FF FF FF FF FF FF FF       ................
00DBE0: FF FF FF FF FF FF FF FF FF FF FF FF FF FF FF FF       ................
00DBF0: FF FF FF FF FF FF FF FF FF FF FF FF FF FF FF FF       ................
00DC00: FF FF FF FF FF FF FF FF FF FF FF FF FF FF FF FF       ................
00DC10: FF FF FF FF FF FF FF FF FF FF FF FF FF FF FF FF       ................
00DC20: FF FF FF FF FF FF FF FF FF FF FF FF FF FF FF FF       ................
00DC30: FF FF FF FF FF FF FF FF FF FF FF FF FF FF FF FF       ................
00DC40: FF FF FF FF FF FF FF FF FF FF FF FF FF FF FF FF       ................
00DC50: FF FF FF FF FF FF FF FF FF FF FF FF FF FF FF FF       ................
00DC60: FF FF FF FF FF FF FF FF FF FF FF FF FF FF FF FF       ................
00DC70: FF FF FF FF FF FF FF FF FF FF FF FF FF FF FF FF       ................
00DC80: FF FF FF FF FF FF FF FF FF FF FF FF FF FF FF FF       ................
00DC90: FF FF FF FF FF FF FF FF FF FF FF FF FF FF FF FF       ................
00DCA0: FF FF FF FF FF FF FF FF FF FF FF FF FF FF FF FF       ................
00DCB0: FF FF FF FF FF FF FF FF FF FF FF FF FF FF FF FF       ................
00DCC0: FF FF FF FF FF FF FF FF FF FF FF FF FF FF FF FF       ................
00DCD0: FF FF FF FF FF FF FF FF FF FF FF FF FF FF FF FF       ................
00DCE0: FF FF FF FF FF FF FF FF FF FF FF FF FF FF FF FF       ................
00DCF0: FF FF FF FF FF FF FF FF FF FF FF FF FF FF FF FF       ................
00DD00: FF FF FF FF FF FF FF FF FF FF FF FF FF FF FF FF       ................
00DD10: FF FF FF FF FF FF FF FF FF FF FF FF FF FF FF FF       ................
00DD20: FF FF FF FF FF FF FF FF FF FF FF FF FF FF FF FF       ................
00DD30: FF FF FF FF FF FF FF FF FF FF FF FF FF FF FF FF       ................
00DD40: FF FF FF FF FF FF FF FF FF FF FF FF FF FF FF FF       ................
00DD50: FF FF FF FF FF FF FF FF FF FF FF FF FF FF FF FF       ................
00DD60: FF FF FF FF FF FF FF FF FF FF FF FF FF FF FF FF       ................
00DD70: FF FF FF FF FF FF FF FF FF FF FF FF FF FF FF FF       ................
00DD80: FF FF FF FF FF FF FF FF FF FF FF FF FF FF FF FF       ................
00DD90: FF FF FF FF FF FF FF FF FF FF FF FF FF FF FF FF       ................
00DDA0: FF FF FF FF FF FF FF FF FF FF FF FF FF FF FF FF       ................
00DDB0: FF FF FF FF FF FF FF FF FF FF FF FF FF FF FF FF       ................
00DDC0: FF FF FF FF FF FF FF FF FF FF FF FF FF FF FF FF       ................
00DDD0: FF FF FF FF FF FF FF FF FF FF FF FF FF FF FF FF       ................
00DDE0: FF FF FF FF FF FF FF FF FF FF FF FF FF FF FF FF       ................
00DDF0: FF FF FF FF FF FF FF FF FF FF FF FF FF FF FF FF       ................
00DE00: FF FF FF FF FF FF FF FF FF FF FF FF FF FF FF FF       ................
00DE10: FF FF FF FF FF FF FF FF FF FF FF FF FF FF FF FF       ................
00DE20: FF FF FF FF FF FF FF FF FF FF FF FF FF FF FF FF       ................
00DE30: FF FF FF FF FF FF FF FF FF FF FF FF FF FF FF FF       ................
00DE40: FF FF FF FF FF FF FF FF FF FF FF FF FF FF FF FF       ................
00DE50: FF FF FF FF FF FF FF FF FF FF FF FF FF FF FF FF       ................
00DE60: FF FF FF FF FF FF FF FF FF FF FF FF FF FF FF FF       ................
00DE70: FF FF FF FF FF FF FF FF FF FF FF FF FF FF FF FF       ................
00DE80: FF FF FF FF FF FF FF FF FF FF FF FF FF FF FF FF       ................
00DE90: FF FF FF FF FF FF FF FF FF FF FF FF FF FF FF FF       ................
00DEA0: FF FF FF FF FF FF FF FF FF FF FF FF FF FF FF FF       ................
00DEB0: FF FF FF FF FF FF FF FF FF FF FF FF FF FF FF FF       ................
00DEC0: FF FF FF FF FF FF FF FF FF FF FF FF FF FF FF FF       ................
00DED0: FF FF FF FF FF FF FF FF FF FF FF FF FF FF FF FF       ................
00DEE0: FF FF FF FF FF FF FF FF FF FF FF FF FF FF FF FF       ................
00DEF0: FF FF FF FF FF FF FF FF FF FF FF FF FF FF FF FF       ................
00DF00: FF FF FF FF FF FF FF FF FF FF FF FF FF FF FF FF       ................
00DF10: FF FF FF FF FF FF FF FF FF FF FF FF FF FF FF FF       ................
00DF20: FF FF FF FF FF FF FF FF FF FF FF FF FF FF FF FF       ................
00DF30: FF FF FF FF FF FF FF FF FF FF FF FF FF FF FF FF       ................
00DF40: FF FF FF FF FF FF FF FF FF FF FF FF FF FF FF FF       ................
00DF50: FF FF FF FF FF FF FF FF FF FF FF FF FF FF FF FF       ................
00DF60: FF FF FF FF FF FF FF FF FF FF FF FF FF FF FF FF       ................
00DF70: FF FF FF FF FF FF FF FF FF FF FF FF FF FF FF FF       ................
00DF80: FF FF FF FF FF FF FF FF FF FF FF FF FF FF FF FF       ................
00DF90: FF FF FF FF FF FF FF FF FF FF FF FF FF FF FF FF       ................
00DFA0: FF FF FF FF FF FF FF FF FF FF FF FF FF FF FF FF       ................
00DFB0: FF FF FF FF FF FF FF FF FF FF FF FF FF FF FF FF       ................
00DFC0: FF FF FF FF FF FF FF FF FF FF FF FF FF FF FF FF       ................
00DFD0: FF FF FF FF FF FF FF FF FF FF FF FF FF FF FF FF       ................
00DFE0: FF FF FF FF FF FF FF FF FF FF FF FF FF FF FF FF       ................
00DFF0: FF FF FF FF FF FF FF FF FF FF FF FF FF FF FF FF       ................
00E000: FF FF FF FF FF FF FF FF FF FF FF FF FF FF FF FF       ................
00E010: FF FF FF FF FF FF FF FF FF FF FF FF FF FF FF FF       ................
00E020: FF FF FF FF FF FF FF FF FF FF FF FF FF FF FF FF       ................
00E030: FF FF FF FF FF FF FF FF FF FF FF FF FF FF FF FF       ................
00E040: FF FF FF FF FF FF FF FF FF FF FF FF FF FF FF FF       ................
00E050: FF FF FF FF FF FF FF FF FF FF FF FF FF FF FF FF       ................
00E060: FF FF FF FF FF FF FF FF FF FF FF FF FF FF FF FF       ................
00E070: FF FF FF FF FF FF FF FF FF FF FF FF FF FF FF FF       ................
00E080: FF FF FF FF FF FF FF FF FF FF FF FF FF FF FF FF       ................
00E090: FF FF FF FF FF FF FF FF FF FF FF FF FF FF FF FF       ................
00E0A0: FF FF FF FF FF FF FF FF FF FF FF FF FF FF FF FF       ................
00E0B0: FF FF FF FF FF FF FF FF FF FF FF FF FF FF FF FF       ................
00E0C0: FF FF FF FF FF FF FF FF FF FF FF FF FF FF FF FF       ................
00E0D0: FF FF FF FF FF FF FF FF FF FF FF FF FF FF FF FF       ................
00E0E0: FF FF FF FF FF FF FF FF FF FF FF FF FF FF FF FF       ................
00E0F0: FF FF FF FF FF FF FF FF FF FF FF FF FF FF FF FF       ................
00E100: FF FF FF FF FF FF FF FF FF FF FF FF FF FF FF FF       ................
00E110: FF FF FF FF FF FF FF FF FF FF FF FF FF FF FF FF       ................
00E120: FF FF FF FF FF FF FF FF FF FF FF FF FF FF FF FF       ................
00E130: FF FF FF FF FF FF FF FF FF FF FF FF FF FF FF FF       ................
00E140: FF FF FF FF FF FF FF FF FF FF FF FF FF FF FF FF       ................
00E150: FF FF FF FF FF FF FF FF FF FF FF FF FF FF FF FF       ................
00E160: FF FF FF FF FF FF FF FF FF FF FF FF FF FF FF FF       ................
00E170: FF FF FF FF FF FF FF FF FF FF FF FF FF FF FF FF       ................
00E180: FF FF FF FF FF FF FF FF FF FF FF FF FF FF FF FF       ................
00E190: FF FF FF FF FF FF FF FF FF FF FF FF FF FF FF FF       ................
00E1A0: FF FF FF FF FF FF FF FF FF FF FF FF FF FF FF FF       ................
00E1B0: FF FF FF FF FF FF FF FF FF FF FF FF FF FF FF FF       ................
00E1C0: FF FF FF FF FF FF FF FF FF FF FF FF FF FF FF FF       ................
00E1D0: FF FF FF FF FF FF FF FF FF FF FF FF FF FF FF FF       ................
00E1E0: FF FF FF FF FF FF FF FF FF FF FF FF FF FF FF FF       ................
00E1F0: FF FF FF FF FF FF FF FF FF FF FF FF FF FF FF FF       ................
00E200: FF FF FF FF FF FF FF FF FF FF FF FF FF FF FF FF       ................
00E210: FF FF FF FF FF FF FF FF FF FF FF FF FF FF FF FF       ................
00E220: FF FF FF FF FF FF FF FF FF FF FF FF FF FF FF FF       ................
00E230: FF FF FF FF FF FF FF FF FF FF FF FF FF FF FF FF       ................
00E240: FF FF FF FF FF FF FF FF FF FF FF FF FF FF FF FF       ................
00E250: FF FF FF FF FF FF FF FF FF FF FF FF FF FF FF FF       ................
00E260: FF FF FF FF FF FF FF FF FF FF FF FF FF FF FF FF       ................
00E270: FF FF FF FF FF FF FF FF FF FF FF FF FF FF FF FF       ................
00E280: FF FF FF FF FF FF FF FF FF FF FF FF FF FF FF FF       ................
00E290: FF FF FF FF FF FF FF FF FF FF FF FF FF FF FF FF       ................
00E2A0: FF FF FF FF FF FF FF FF FF FF FF FF FF FF FF FF       ................
00E2B0: FF FF FF FF FF FF FF FF FF FF FF FF FF FF FF FF       ................
00E2C0: FF FF FF FF FF FF FF FF FF FF FF FF FF FF FF FF       ................
00E2D0: FF FF FF FF FF FF FF FF FF FF FF FF FF FF FF FF       ................
00E2E0: FF FF FF FF FF FF FF FF FF FF FF FF FF FF FF FF       ................
00E2F0: FF FF FF FF FF FF FF FF FF FF FF FF FF FF FF FF       ................
00E300: FF FF FF FF FF FF FF FF FF FF FF FF FF FF FF FF       ................
00E310: FF FF FF FF FF FF FF FF FF FF FF FF FF FF FF FF       ................
00E320: FF FF FF FF FF FF FF FF FF FF FF FF FF FF FF FF       ................
00E330: FF FF FF FF FF FF FF FF FF FF FF FF FF FF FF FF       ................
00E340: FF FF FF FF FF FF FF FF FF FF FF FF FF FF FF FF       ................
00E350: FF FF FF FF FF FF FF FF FF FF FF FF FF FF FF FF       ................
00E360: FF FF FF FF FF FF FF FF FF FF FF FF FF FF FF FF       ................
00E370: FF FF FF FF FF FF FF FF FF FF FF FF FF FF FF FF       ................
00E380: FF FF FF FF FF FF FF FF FF FF FF FF FF FF FF FF       ................
00E390: FF FF FF FF FF FF FF FF FF FF FF FF FF FF FF FF       ................
00E3A0: FF FF FF FF FF FF FF FF FF FF FF FF FF FF FF FF       ................
00E3B0: FF FF FF FF FF FF FF FF FF FF FF FF FF FF FF FF       ................
00E3C0: FF FF FF FF FF FF FF FF FF FF FF FF FF FF FF FF       ................
00E3D0: FF FF FF FF FF FF FF FF FF FF FF FF FF FF FF FF       ................
00E3E0: FF FF FF FF FF FF FF FF FF FF FF FF FF FF FF FF       ................
00E3F0: FF FF FF FF FF FF FF FF FF FF FF FF FF FF FF FF       ................
00E400: FF FF FF FF FF FF FF FF FF FF FF FF FF FF FF FF       ................
00E410: FF FF FF FF FF FF FF FF FF FF FF FF FF FF FF FF       ................
00E420: FF FF FF FF FF FF FF FF FF FF FF FF FF FF FF FF       ................
00E430: FF FF FF FF FF FF FF FF FF FF FF FF FF FF FF FF       ................
00E440: FF FF FF FF FF FF FF FF FF FF FF FF FF FF FF FF       ................
00E450: FF FF FF FF FF FF FF FF FF FF FF FF FF FF FF FF       ................
00E460: FF FF FF FF FF FF FF FF FF FF FF FF FF FF FF FF       ................
00E470: FF FF FF FF FF FF FF FF FF FF FF FF FF FF FF FF       ................
00E480: FF FF FF FF FF FF FF FF FF FF FF FF FF FF FF FF       ................
00E490: FF FF FF FF FF FF FF FF FF FF FF FF FF FF FF FF       ................
00E4A0: FF FF FF FF FF FF FF FF FF FF FF FF FF FF FF FF       ................
00E4B0: FF FF FF FF FF FF FF FF FF FF FF FF FF FF FF FF       ................
00E4C0: FF FF FF FF FF FF FF FF FF FF FF FF FF FF FF FF       ................
00E4D0: FF FF FF FF FF FF FF FF FF FF FF FF FF FF FF FF       ................
00E4E0: FF FF FF FF FF FF FF FF FF FF FF FF FF FF FF FF       ................
00E4F0: FF FF FF FF FF FF FF FF FF FF FF FF FF FF FF FF       ................
00E500: FF FF FF FF FF FF FF FF FF FF FF FF FF FF FF FF       ................
00E510: FF FF FF FF FF FF FF FF FF FF FF FF FF FF FF FF       ................
00E520: FF FF FF FF FF FF FF FF FF FF FF FF FF FF FF FF       ................
00E530: FF FF FF FF FF FF FF FF FF FF FF FF FF FF FF FF       ................
00E540: FF FF FF FF FF FF FF FF FF FF FF FF FF FF FF FF       ................
00E550: FF FF FF FF FF FF FF FF FF FF FF FF FF FF FF FF       ................
00E560: FF FF FF FF FF FF FF FF FF FF FF FF FF FF FF FF       ................
00E570: FF FF FF FF FF FF FF FF FF FF FF FF FF FF FF FF       ................
00E580: FF FF FF FF FF FF FF FF FF FF FF FF FF FF FF FF       ................
00E590: FF FF FF FF FF FF FF FF FF FF FF FF FF FF FF FF       ................
00E5A0: FF FF FF FF FF FF FF FF FF FF FF FF FF FF FF FF       ................
00E5B0: FF FF FF FF FF FF FF FF FF FF FF FF FF FF FF FF       ................
00E5C0: FF FF FF FF FF FF FF FF FF FF FF FF FF FF FF FF       ................
00E5D0: FF FF FF FF FF FF FF FF FF FF FF FF FF FF FF FF       ................
00E5E0: FF FF FF FF FF FF FF FF FF FF FF FF FF FF FF FF       ................
00E5F0: FF FF FF FF FF FF FF FF FF FF FF FF FF FF FF FF       ................
00E600: FF FF FF FF FF FF FF FF FF FF FF FF FF FF FF FF       ................
00E610: FF FF FF FF FF FF FF FF FF FF FF FF FF FF FF FF       ................
00E620: FF FF FF FF FF FF FF FF FF FF FF FF FF FF FF FF       ................
00E630: FF FF FF FF FF FF FF FF FF FF FF FF FF FF FF FF       ................
00E640: FF FF FF FF FF FF FF FF FF FF FF FF FF FF FF FF       ................
00E650: FF FF FF FF FF FF FF FF FF FF FF FF FF FF FF FF       ................
00E660: FF FF FF FF FF FF FF FF FF FF FF FF FF FF FF FF       ................
00E670: FF FF FF FF FF FF FF FF FF FF FF FF FF FF FF FF       ................
00E680: FF FF FF FF FF FF FF FF FF FF FF FF FF FF FF FF       ................
00E690: FF FF FF FF FF FF FF FF FF FF FF FF FF FF FF FF       ................
00E6A0: FF FF FF FF FF FF FF FF FF FF FF FF FF FF FF FF       ................
00E6B0: FF FF FF FF FF FF FF FF FF FF FF FF FF FF FF FF       ................
00E6C0: FF FF FF FF FF FF FF FF FF FF FF FF FF FF FF FF       ................
00E6D0: FF FF FF FF FF FF FF FF FF FF FF FF FF FF FF FF       ................
00E6E0: FF FF FF FF FF FF FF FF FF FF FF FF FF FF FF FF       ................
00E6F0: FF FF FF FF FF FF FF FF FF FF FF FF FF FF FF FF       ................
00E700: FF FF FF FF FF FF FF FF FF FF FF FF FF FF FF FF       ................
00E710: FF FF FF FF FF FF FF FF FF FF FF FF FF FF FF FF       ................
00E720: FF FF FF FF FF FF FF FF FF FF FF FF FF FF FF FF       ................
00E730: FF FF FF FF FF FF FF FF FF FF FF FF FF FF FF FF       ................
00E740: FF FF FF FF FF FF FF FF FF FF FF FF FF FF FF FF       ................
00E750: FF FF FF FF FF FF FF FF FF FF FF FF FF FF FF FF       ................
00E760: FF FF FF FF FF FF FF FF FF FF FF FF FF FF FF FF       ................
00E770: FF FF FF FF FF FF FF FF FF FF FF FF FF FF FF FF       ................
00E780: FF FF FF FF FF FF FF FF FF FF FF FF FF FF FF FF       ................
00E790: FF FF FF FF FF FF FF FF FF FF FF FF FF FF FF FF       ................
00E7A0: FF FF FF FF FF FF FF FF FF FF FF FF FF FF FF FF       ................
00E7B0: FF FF FF FF FF FF FF FF FF FF FF FF FF FF FF FF       ................
00E7C0: FF FF FF FF FF FF FF FF FF FF FF FF FF FF FF FF       ................
00E7D0: FF FF FF FF FF FF FF FF FF FF FF FF FF FF FF FF       ................
00E7E0: FF FF FF FF FF FF FF FF FF FF FF FF FF FF FF FF       ................
00E7F0: FF FF FF FF FF FF FF FF FF FF FF FF FF FF FF FF       ................
00E800: FF FF FF FF FF FF FF FF FF FF FF FF FF FF FF FF       ................
00E810: FF FF FF FF FF FF FF FF FF FF FF FF FF FF FF FF       ................
00E820: FF FF FF FF FF FF FF FF FF FF FF FF FF FF FF FF       ................
00E830: FF FF FF FF FF FF FF FF FF FF FF FF FF FF FF FF       ................
00E840: FF FF FF FF FF FF FF FF FF FF FF FF FF FF FF FF       ................
00E850: FF FF FF FF FF FF FF FF FF FF FF FF FF FF FF FF       ................
00E860: FF FF FF FF FF FF FF FF FF FF FF FF FF FF FF FF       ................
00E870: FF FF FF FF FF FF FF FF FF FF FF FF FF FF FF FF       ................
00E880: FF FF FF FF FF FF FF FF FF FF FF FF FF FF FF FF       ................
00E890: FF FF FF FF FF FF FF FF FF FF FF FF FF FF FF FF       ................
00E8A0: FF FF FF FF FF FF FF FF FF FF FF FF FF FF FF FF       ................
00E8B0: FF FF FF FF FF FF FF FF FF FF FF FF FF FF FF FF       ................
00E8C0: FF FF FF FF FF FF FF FF FF FF FF FF FF FF FF FF       ................
00E8D0: FF FF FF FF FF FF FF FF FF FF FF FF FF FF FF FF       ................
00E8E0: FF FF FF FF FF FF FF FF FF FF FF FF FF FF FF FF       ................
00E8F0: FF FF FF FF FF FF FF FF FF FF FF FF FF FF FF FF       ................
00E900: FF FF FF FF FF FF FF FF FF FF FF FF FF FF FF FF       ................
00E910: FF FF FF FF FF FF FF FF FF FF FF FF FF FF FF FF       ................
00E920: FF FF FF FF FF FF FF FF FF FF FF FF FF FF FF FF       ................
00E930: FF FF FF FF FF FF FF FF FF FF FF FF FF FF FF FF       ................
00E940: FF FF FF FF FF FF FF FF FF FF FF FF FF FF FF FF       ................
00E950: FF FF FF FF FF FF FF FF FF FF FF FF FF FF FF FF       ................
00E960: FF FF FF FF FF FF FF FF FF FF FF FF FF FF FF FF       ................
00E970: FF FF FF FF FF FF FF FF FF FF FF FF FF FF FF FF       ................
00E980: FF FF FF FF FF FF FF FF FF FF FF FF FF FF FF FF       ................
00E990: FF FF FF FF FF FF FF FF FF FF FF FF FF FF FF FF       ................
00E9A0: FF FF FF FF FF FF FF FF FF FF FF FF FF FF FF FF       ................
00E9B0: FF FF FF FF FF FF FF FF FF FF FF FF FF FF FF FF       ................
00E9C0: FF FF FF FF FF FF FF FF FF FF FF FF FF FF FF FF       ................
00E9D0: FF FF FF FF FF FF FF FF FF FF FF FF FF FF FF FF       ................
00E9E0: FF FF FF FF FF FF FF FF FF FF FF FF FF FF FF FF       ................
00E9F0: FF FF FF FF FF FF FF FF FF FF FF FF FF FF FF FF       ................
00EA00: FF FF FF FF FF FF FF FF FF FF FF FF FF FF FF FF       ................
00EA10: FF FF FF FF FF FF FF FF FF FF FF FF FF FF FF FF       ................
00EA20: FF FF FF FF FF FF FF FF FF FF FF FF FF FF FF FF       ................
00EA30: FF FF FF FF FF FF FF FF FF FF FF FF FF FF FF FF       ................
00EA40: FF FF FF FF FF FF FF FF FF FF FF FF FF FF FF FF       ................
00EA50: FF FF FF FF FF FF FF FF FF FF FF FF FF FF FF FF       ................
00EA60: FF FF FF FF FF FF FF FF FF FF FF FF FF FF FF FF       ................
00EA70: FF FF FF FF FF FF FF FF FF FF FF FF FF FF FF FF       ................
00EA80: FF FF FF FF FF FF FF FF FF FF FF FF FF FF FF FF       ................
00EA90: FF FF FF FF FF FF FF FF FF FF FF FF FF FF FF FF       ................
00EAA0: FF FF FF FF FF FF FF FF FF FF FF FF FF FF FF FF       ................
00EAB0: FF FF FF FF FF FF FF FF FF FF FF FF FF FF FF FF       ................
00EAC0: FF FF FF FF FF FF FF FF FF FF FF FF FF FF FF FF       ................
00EAD0: FF FF FF FF FF FF FF FF FF FF FF FF FF FF FF FF       ................
00EAE0: FF FF FF FF FF FF FF FF FF FF FF FF FF FF FF FF       ................
00EAF0: FF FF FF FF FF FF FF FF FF FF FF FF FF FF FF FF       ................
00EB00: FF FF FF FF FF FF FF FF FF FF FF FF FF FF FF FF       ................
00EB10: FF FF FF FF FF FF FF FF FF FF FF FF FF FF FF FF       ................
00EB20: FF FF FF FF FF FF FF FF FF FF FF FF FF FF FF FF       ................
00EB30: FF FF FF FF FF FF FF FF FF FF FF FF FF FF FF FF       ................
00EB40: FF FF FF FF FF FF FF FF FF FF FF FF FF FF FF FF       ................
00EB50: FF FF FF FF FF FF FF FF FF FF FF FF FF FF FF FF       ................
00EB60: FF FF FF FF FF FF FF FF FF FF FF FF FF FF FF FF       ................
00EB70: FF FF FF FF FF FF FF FF FF FF FF FF FF FF FF FF       ................
00EB80: FF FF FF FF FF FF FF FF FF FF FF FF FF FF FF FF       ................
00EB90: FF FF FF FF FF FF FF FF FF FF FF FF FF FF FF FF       ................
00EBA0: FF FF FF FF FF FF FF FF FF FF FF FF FF FF FF FF       ................
00EBB0: FF FF FF FF FF FF FF FF FF FF FF FF FF FF FF FF       ................
00EBC0: FF FF FF FF FF FF FF FF FF FF FF FF FF FF FF FF       ................
00EBD0: FF FF FF FF FF FF FF FF FF FF FF FF FF FF FF FF       ................
00EBE0: FF FF FF FF FF FF FF FF FF FF FF FF FF FF FF FF       ................
00EBF0: FF FF FF FF FF FF FF FF FF FF FF FF FF FF FF FF       ................
00EC00: FF FF FF FF FF FF FF FF FF FF FF FF FF FF FF FF       ................
00EC10: FF FF FF FF FF FF FF FF FF FF FF FF FF FF FF FF       ................
00EC20: FF FF FF FF FF FF FF FF FF FF FF FF FF FF FF FF       ................
00EC30: FF FF FF FF FF FF FF FF FF FF FF FF FF FF FF FF       ................
00EC40: FF FF FF FF FF FF FF FF FF FF FF FF FF FF FF FF       ................
00EC50: FF FF FF FF FF FF FF FF FF FF FF FF FF FF FF FF       ................
00EC60: FF FF FF FF FF FF FF FF FF FF FF FF FF FF FF FF       ................
00EC70: FF FF FF FF FF FF FF FF FF FF FF FF FF FF FF FF       ................
00EC80: FF FF FF FF FF FF FF FF FF FF FF FF FF FF FF FF       ................
00EC90: FF FF FF FF FF FF FF FF FF FF FF FF FF FF FF FF       ................
00ECA0: FF FF FF FF FF FF FF FF FF FF FF FF FF FF FF FF       ................
00ECB0: FF FF FF FF FF FF FF FF FF FF FF FF FF FF FF FF       ................
00ECC0: FF FF FF FF FF FF FF FF FF FF FF FF FF FF FF FF       ................
00ECD0: FF FF FF FF FF FF FF FF FF FF FF FF FF FF FF FF       ................
00ECE0: FF FF FF FF FF FF FF FF FF FF FF FF FF FF FF FF       ................
00ECF0: FF FF FF FF FF FF FF FF FF FF FF FF FF FF FF FF       ................
00ED00: FF FF FF FF FF FF FF FF FF FF FF FF FF FF FF FF       ................
00ED10: FF FF FF FF FF FF FF FF FF FF FF FF FF FF FF FF       ................
00ED20: FF FF FF FF FF FF FF FF FF FF FF FF FF FF FF FF       ................
00ED30: FF FF FF FF FF FF FF FF FF FF FF FF FF FF FF FF       ................
00ED40: FF FF FF FF FF FF FF FF FF FF FF FF FF FF FF FF       ................
00ED50: FF FF FF FF FF FF FF FF FF FF FF FF FF FF FF FF       ................
00ED60: FF FF FF FF FF FF FF FF FF FF FF FF FF FF FF FF       ................
00ED70: FF FF FF FF FF FF FF FF FF FF FF FF FF FF FF FF       ................
00ED80: FF FF FF FF FF FF FF FF FF FF FF FF FF FF FF FF       ................
00ED90: FF FF FF FF FF FF FF FF FF FF FF FF FF FF FF FF       ................
00EDA0: FF FF FF FF FF FF FF FF FF FF FF FF FF FF FF FF       ................
00EDB0: FF FF FF FF FF FF FF FF FF FF FF FF FF FF FF FF       ................
00EDC0: FF FF FF FF FF FF FF FF FF FF FF FF FF FF FF FF       ................
00EDD0: FF FF FF FF FF FF FF FF FF FF FF FF FF FF FF FF       ................
00EDE0: FF FF FF FF FF FF FF FF FF FF FF FF FF FF FF FF       ................
00EDF0: FF FF FF FF FF FF FF FF FF FF FF FF FF FF FF FF       ................
00EE00: FF FF FF FF FF FF FF FF FF FF FF FF FF FF FF FF       ................
00EE10: FF FF FF FF FF FF FF FF FF FF FF FF FF FF FF FF       ................
00EE20: FF FF FF FF FF FF FF FF FF FF FF FF FF FF FF FF       ................
00EE30: FF FF FF FF FF FF FF FF FF FF FF FF FF FF FF FF       ................
00EE40: FF FF FF FF FF FF FF FF FF FF FF FF FF FF FF FF       ................
00EE50: FF FF FF FF FF FF FF FF FF FF FF FF FF FF FF FF       ................
00EE60: FF FF FF FF FF FF FF FF FF FF FF FF FF FF FF FF       ................
00EE70: FF FF FF FF FF FF FF FF FF FF FF FF FF FF FF FF       ................
00EE80: FF FF FF FF FF FF FF FF FF FF FF FF FF FF FF FF       ................
00EE90: FF FF FF FF FF FF FF FF FF FF FF FF FF FF FF FF       ................
00EEA0: FF FF FF FF FF FF FF FF FF FF FF FF FF FF FF FF       ................
00EEB0: FF FF FF FF FF FF FF FF FF FF FF FF FF FF FF FF       ................
00EEC0: FF FF FF FF FF FF FF FF FF FF FF FF FF FF FF FF       ................
00EED0: FF FF FF FF FF FF FF FF FF FF FF FF FF FF FF FF       ................
00EEE0: FF FF FF FF FF FF FF FF FF FF FF FF FF FF FF FF       ................
00EEF0: FF FF FF FF FF FF FF FF FF FF FF FF FF FF FF FF       ................
00EF00: FF FF FF FF FF FF FF FF FF FF FF FF FF FF FF FF       ................
00EF10: FF FF FF FF FF FF FF FF FF FF FF FF FF FF FF FF       ................
00EF20: FF FF FF FF FF FF FF FF FF FF FF FF FF FF FF FF       ................
00EF30: FF FF FF FF FF FF FF FF FF FF FF FF FF FF FF FF       ................
00EF40: FF FF FF FF FF FF FF FF FF FF FF FF FF FF FF FF       ................
00EF50: FF FF FF FF FF FF FF FF FF FF FF FF FF FF FF FF       ................
00EF60: FF FF FF FF FF FF FF FF FF FF FF FF FF FF FF FF       ................
00EF70: FF FF FF FF FF FF FF FF FF FF FF FF FF FF FF FF       ................
00EF80: FF FF FF FF FF FF FF FF FF FF FF FF FF FF FF FF       ................
00EF90: FF FF FF FF FF FF FF FF FF FF FF FF FF FF FF FF       ................
00EFA0: FF FF FF FF FF FF FF FF FF FF FF FF FF FF FF FF       ................
00EFB0: FF FF FF FF FF FF FF FF FF FF FF FF FF FF FF FF       ................
00EFC0: FF FF FF FF FF FF FF FF FF FF FF FF FF FF FF FF       ................
00EFD0: FF FF FF FF FF FF FF FF FF FF FF FF FF FF FF FF       ................
00EFE0: FF FF FF FF FF FF FF FF FF FF FF FF FF FF FF FF       ................
00EFF0: FF FF FF FF FF FF FF FF FF FF FF FF FF FF FF FF       ................
00F000: 53 53 00 FF 52 45 00 FF 53 53 00 FF 53 53 00 FF       SS..RE..SS..SS..
00F010: 53 53 00 FF 53 53 00 FF 42 54 00 FF 7B 53 52 45       SS..SS..BT..{SRE
00F020: 54 25 73 7D 00 FF 53 53 00 FF 30 30 30 33 2B 25       T%s}..SS..0003+%
00F030: 30 32 64 00 7B 53 52 43 44 25 73 7D 00 FF 53 53       02d.{SRCD%s}..SS
00F040: 00 FF 30 30 30 25 64 2B 25 73 00 FF 32 2E 32 00       ..000%d+%s..2.2.
00F050: 00 FF 32 2E 32 00 00 FF 7B 53 52 53 50 25 73 7D       ..2.2...{SRSP%s}
00F060: 00 FF 53 53 00 FF 7B 53 52 47 50 25 73 7D 00 FF       ..SS..{SRGP%s}..
00F070: 53 53 00 FF 25 30 34 64 2B 00 30 30 30 37 2B 6E       SS..%04d+.0007+n
00F080: 6F 72 6D 61 6C 00 30 30 30 38 2B 69 6E 76 65 72       ormal.0008+inver
00F090: 73 65 00 FF 30 30 30 33 2B 30 32 00 30 30 30 25       se..0003+02.000%
00F0A0: 64 2B 25 73 00 FF 32 2E 32 00 00 FF 32 2E 32 00       d+%s..2.2...2.2.
00F0B0: 00 FF 30 30 30 37 2B 6E 6F 72 6D 61 6C 00 30 30       ..0007+normal.00
00F0C0: 30 38 2B 69 6E 76 65 72 73 65 00 FF 30 30 30 35       08+inverse..0005
00F0D0: 2B 69 64 6C 65 00 30 30 30 38 2B 69 6D 61 67 69       +idle.0008+imagi
00F0E0: 6E 67 00 FF 30 30 30 38 2B 62 6F 6F 74 69 6E 67       ng..0008+booting
00F0F0: 00 FF 30 30 31 32 2B 62 6F 6F 74 20 66 61 69 6C       ..0012+boot fail
00F100: 65 64 00 FF 30 30 30 38 2B 53 49 47 74 65 73 74       ed..0008+SIGtest
00F110: 00 FF 7B 52 53 00 41 54 49 61 63 74 69 20 2D 20       ..{RS.ATIacti - 
00F120: 55 6E 6B 6E 6F 77 6E 20 64 65 76 69 63 65 00 FF       Unknown device..
00F130: 45 52 52 4F 52 20 44 4E 20 63 6F 6D 70 6C 2E 20       ERROR DN compl. 
00F140: 63 6F 64 65 20 3D 20 25 63 00 53 48 20 74 69 6D       code = %c.SH tim
00F150: 65 64 20 6F 75 74 00 FF 50 41 20 74 69 6D 65 64       ed out..PA timed
00F160: 20 6F 75 74 00 FF 45 52 52 4F 52 20 50 41 20 63        out..ERROR PA c
00F170: 6F 6D 70 6C 2E 20 63 6F 64 65 20 3D 20 25 63 00       ompl. code = %c.
00F180: 7B 53 52 25 73 7D 00 FF 30 30 30 31 2D 00 30 30       {SR%s}..0001-.00
00F190: 30 31 2B 00 49 6C 6C 65 67 61 6C 20 6D 73 67 20       01+.Illegal msg 
00F1A0: 3A 20 25 73 00 FF 30 30 30 34 2B 00 00 01 71 E8       : %s..0004+...q.
00F1B0: 00 01 71 EE 00 01 71 F4 00 01 71 FA 00 01 72 00       ..q...q...q...r.
00F1C0: 00 01 72 06 00 01 72 0C 00 01 72 12 00 01 72 18       ..r...r...r...r.
00F1D0: 00 01 72 1E 00 01 72 24 00 01 72 2A 00 01 72 30       ..r...r$..r*..r0
00F1E0: 00 01 72 36 00 01 72 3C 21 53 54 41 00 FF 21 4C       ..r6..r<!STA..!L
00F1F0: 26 53 00 FF 21 42 45 47 00 FF 21 45 4E 44 00 FF       &S..!BEG..!END..
00F200: 21 50 57 52 00 FF 5F 47 53 54 00 FF 5F 43 4D 44       !PWR.._GST.._CMD
00F210: 00 FF 5F 49 4E 46 00 FF 5F 53 45 54 00 FF 5F 47       .._INF.._SET.._G
00F220: 45 54 00 FF 5F 4D 4F 44 00 FF 5F 4E 45 47 00 FF       ET.._MOD.._NEG..
00F230: 5F 50 4F 53 00 FF 5F 47 50 52 00 FF 5F 52 45 53       _POS.._GPR.._RES
00F240: 00 FF 00 01 72 56 00 01 72 5A 00 01 72 5E 00 01       ....rV..rZ..r^..
00F250: 72 62 00 01 72 66 52 45 00 FF 50 41 00 FF 44 4E       rb..rfRE..PA..DN
00F260: 00 FF 4D 47 00 FF 53 48 00 FF 4D 6F 64 65 20 3D       ..MG..SH..Mode =
00F270: 20 24 25 30 32 78 0A 00 52 65 73 65 74 20 62 75        $%02x..Reset bu
00F280: 74 74 6F 6E 20 3D 20 25 64 0A 00 FF 44 65 62 75       tton = %d...Debu
00F290: 67 20 3D 20 25 64 0A 00 0D 0A 48 65 6C 6C 6F 2C       g = %d....Hello,
00F2A0: 20 74 68 69 73 20 69 73 20 74 68 65 20 64 65 62        this is the deb
00F2B0: 75 67 20 70 6F 72 74 20 0D 0A 00 FF 74 79 70 65       ug port ....type
00F2C0: 20 20 41 54 49 20 20 66 6F 72 20 6E 6F 72 6D 61         ATI  for norma
00F2D0: 6C 20 6F 70 65 72 61 74 69 6F 6E 20 0D 0A 00 FF       l operation ....
00F2E0: 00 04 00 00 41 67 66 61 20 54 39 34 30 30 50 53       ....Agfa T9400PS
00F2F0: 20 41 54 49 20 76 25 73 0A 00 32 2E 32 00 00 FF        ATI v%s..2.2...
00F300: 45 52 52 4F 52 20 3A 20 69 6C 6C 65 67 61 6C 20       ERROR : illegal 
00F310: 73 63 61 6E 53 77 69 74 63 68 20 70 61 72 61 6D       scanSwitch param
00F320: 65 74 65 72 00 FF 55 4E 4C 4F 43 4B 2D 45 52 52       eter..UNLOCK-ERR
00F330: 4F 52 20 3A 20 74 6F 6F 20 6D 61 6E 79 20 75 6E       OR : too many un
00F340: 6C 6F 63 6B 73 00 41 50 49 53 2D 45 52 52 4F 52       locks.APIS-ERROR
00F350: 20 3A 20 69 6C 6C 65 67 61 6C 20 62 75 66 66 65        : illegal buffe
00F360: 72 20 66 6C 61 67 73 00 41 50 49 53 2D 45 52 52       r flags.APIS-ERR
00F370: 4F 52 20 3A 20 74 69 6D 65 6F 75 74 00 FF 41 54       OR : timeout..AT
00F380: 50 2D 45 52 52 4F 52 20 3A 20 74 69 6D 65 6F 75       P-ERROR : timeou
00F390: 74 00 53 43 41 4E 2D 45 52 52 4F 52 20 3A 20 62       t.SCAN-ERROR : b
00F3A0: 75 66 66 65 72 20 66 75 6C 6C 00 FF 41 54 50 2D       uffer full..ATP-
00F3B0: 45 52 52 4F 52 20 3A 20 69 6C 6C 65 67 61 6C 20       ERROR : illegal 
00F3C0: 63 6F 75 6E 74 20 72 65 63 65 69 76 65 64 00 FF       count received..
00F3D0: 41 54 50 2D 45 52 52 4F 52 20 3A 20 72 65 63 65       ATP-ERROR : rece
00F3E0: 69 76 65 64 20 63 6F 75 6E 74 20 74 6F 6F 20 62       ived count too b
00F3F0: 69 67 00 FF 25 73 00 FF 1B 5B 40 00 08 20 08 00       ig..%s...[@.. ..
00F400: 08 1B 5B 50 00 FF 1B 5B 44 00 1B 5B 43 00 0D 1B       ..[P...[D..[C...
00F410: 5B 4B 25 73 25 73 00 FF 0D 1B 5B 4B 25 73 25 73       [K%s%s....[K%s%s
00F420: 00 FF 0D 1B 5B 4B 25 73 00 FF 0A 00 47 4F 20 25       ....[K%s....GO %
00F430: 4C 0A 00 FF 4D 65 6D 6F 72 79 20 64 75 6D 70 20       L...Memory dump 
00F440: 66 72 6F 6D 20 25 4C 20 74 6F 20 25 4C 20 0A 00       from %L to %L ..
00F450: 25 4C 20 00 20 2D 2D 00 20 25 42 00 20 20 00 FF       %L . --. %B.  ..
00F460: 0A 00 4D 65 6D 6F 72 79 20 6D 6F 64 69 66 79 20       ..Memory modify 
00F470: 61 74 20 25 4C 0A 00 FF 25 4C 20 25 42 00 20 3F       at %L...%L %B. ?
00F480: 20 00 49 6E 76 61 6C 69 64 20 6E 75 6D 62 65 72        .Invalid number
00F490: 0A 00 49 6E 76 61 6C 69 64 20 63 6F 6D 6D 61 6E       ..Invalid comman
00F4A0: 64 20 28 75 73 65 20 27 3D 20 5E 20 76 20 2E 27       d (use '= ^ v .'
00F4B0: 29 0A 00 FF 4C 6F 61 64 20 53 2D 72 65 63 20 25       )...Load S-rec %
00F4C0: 73 0A 00 FF 0A 53 74 61 72 74 20 61 64 64 72 65       s....Start addre
00F4D0: 73 73 20 3D 20 25 4C 20 20 20 28 6C 6F 77 3D 25       ss = %L   (low=%
00F4E0: 4C 20 68 69 67 68 3D 25 4C 29 0A 00 53 79 6E 74       L high=%L)..Synt
00F4F0: 61 78 20 65 72 72 6F 72 0A 00 55 6E 6B 6E 6F 77       ax error..Unknow
00F500: 6E 20 63 6F 6D 6D 61 6E 64 20 27 25 73 27 00 FF       n command '%s'..
00F510: 0A 20 20 20 00 FF 25 37 73 20 00 FF 0A 00 61 74       .   ..%7s ....at
00F520: 69 3E 20 00 00 00 00 00 00 01 00 00 00 00 00 1F       i> .............
00F530: 00 01 00 00 BA FB AF 11 00 00 14 1C 4C 45 44 00       ............LED.
00F540: FF FF FF FF BA FB AF 11 00 00 14 48 56 49 44 45       ...........HVIDE
00F550: 4F 00 FF FF BA FB AF 11 00 00 14 7A 52 45 53 4F       O..........zRESO
00F560: 4C 00 FF FF BA FB AF 11 00 00 14 BC 49 4E 56 45       L...........INVE
00F570: 52 53 45 00 BA FB AF 11 00 00 14 E8 4D 4F 44 45       RSE.........MODE
00F580: 00 FF FF FF BA FB AF 11 00 00 15 00 52 45 53 45       ............RESE
00F590: 54 00 FF FF BA FB AF 11 00 00 15 18 44 45 42 55       T...........DEBU
00F5A0: 47 00 FF FF BA FB AF 11 00 00 15 30 54 4D 00 FF       G..........0TM..
00F5B0: FF FF FF FF BA FB AF 11 00 00 15 B8 54 4D 31 00       ............TM1.
00F5C0: FF FF FF FF BA FB AF 11 00 00 16 26 54 4D 32 00       ...........&TM2.
00F5D0: FF FF FF FF BA FB AF 11 00 00 04 2C 41 54 49 00       ...........,ATI.
00F5E0: FF FF FF FF BA FB AF 11 00 00 28 C0 47 4F 00 FF       ..........(.GO..
00F5F0: FF FF FF FF BA FB AF 11 00 00 28 F6 4D 44 00 FF       ..........(.MD..
00F600: FF FF FF FF BA FB AF 11 00 00 2A A8 4D 4D 00 FF       ..........*.MM..
00F610: FF FF FF FF BA FB AF 11 00 00 2C 6C 4C 4F 00 FF       ..........,lLO..
00F620: FF FF FF FF BA FB AF 11 00 00 2E 86 00 FF FF FF       ................
00F630: FF FF FF FF BA FB AF 11 00 00 00 00 00 FF FF FF       ................
00F640: FF FF FF FF 00 01 75 34 FF FF FF FF FF FF FF FF       ......u4........
00F650: FF FF FF FF FF FF FF FF FF FF FF FF FF FF FF FF       ................
00F660: FF FF FF FF FF FF FF FF FF FF FF FF FF FF FF FF       ................
00F670: FF FF FF FF FF FF FF FF FF FF FF FF FF FF FF FF       ................
00F680: FF FF FF FF FF FF FF FF FF FF FF FF FF FF FF FF       ................
00F690: FF FF FF FF FF FF FF FF FF FF FF FF FF FF FF FF       ................
00F6A0: FF FF FF FF FF FF FF FF FF FF FF FF FF FF FF FF       ................
00F6B0: FF FF FF FF FF FF FF FF FF FF FF FF FF FF FF FF       ................
00F6C0: FF FF FF FF FF FF FF FF FF FF FF FF FF FF FF FF       ................
00F6D0: FF FF FF FF FF FF FF FF FF FF FF FF FF FF FF FF       ................
00F6E0: FF FF FF FF FF FF FF FF FF FF FF FF FF FF FF FF       ................
00F6F0: FF FF FF FF FF FF FF FF FF FF FF FF FF FF FF FF       ................
00F700: FF FF FF FF FF FF FF FF FF FF FF FF FF FF FF FF       ................
00F710: FF FF FF FF FF FF FF FF FF FF FF FF FF FF FF FF       ................
00F720: FF FF FF FF FF FF FF FF FF FF FF FF FF FF FF FF       ................
00F730: FF FF FF FF FF FF FF FF FF FF FF FF FF FF FF FF       ................
00F740: FF FF FF FF FF FF FF FF FF FF FF FF FF FF FF FF       ................
00F750: FF FF FF FF FF FF FF FF FF FF FF FF FF FF FF FF       ................
00F760: FF FF FF FF FF FF FF FF FF FF FF FF FF FF FF FF       ................
00F770: FF FF FF FF FF FF FF FF FF FF FF FF FF FF FF FF       ................
00F780: FF FF FF FF FF FF FF FF FF FF FF FF FF FF FF FF       ................
00F790: FF FF FF FF FF FF FF FF FF FF FF FF FF FF FF FF       ................
00F7A0: FF FF FF FF FF FF FF FF FF FF FF FF FF FF FF FF       ................
00F7B0: FF FF FF FF FF FF FF FF FF FF FF FF FF FF FF FF       ................
00F7C0: FF FF FF FF FF FF FF FF FF FF FF FF FF FF FF FF       ................
00F7D0: FF FF FF FF FF FF FF FF FF FF FF FF FF FF FF FF       ................
00F7E0: FF FF FF FF FF FF FF FF FF FF FF FF FF FF FF FF       ................
00F7F0: FF FF FF FF FF FF FF FF FF FF FF FF FF FF FF FF       ................
00F800: FF FF FF FF FF FF FF FF FF FF FF FF FF FF FF FF       ................
00F810: FF FF FF FF FF FF FF FF FF FF FF FF FF FF FF FF       ................
00F820: FF FF FF FF FF FF FF FF FF FF FF FF FF FF FF FF       ................
00F830: FF FF FF FF FF FF FF FF FF FF FF FF FF FF FF FF       ................
00F840: FF FF FF FF FF FF FF FF FF FF FF FF FF FF FF FF       ................
00F850: FF FF FF FF FF FF FF FF FF FF FF FF FF FF FF FF       ................
00F860: FF FF FF FF FF FF FF FF FF FF FF FF FF FF FF FF       ................
00F870: FF FF FF FF FF FF FF FF FF FF FF FF FF FF FF FF       ................
00F880: FF FF FF FF FF FF FF FF FF FF FF FF FF FF FF FF       ................
00F890: FF FF FF FF FF FF FF FF FF FF FF FF FF FF FF FF       ................
00F8A0: FF FF FF FF FF FF FF FF FF FF FF FF FF FF FF FF       ................
00F8B0: FF FF FF FF FF FF FF FF FF FF FF FF FF FF FF FF       ................
00F8C0: FF FF FF FF FF FF FF FF FF FF FF FF FF FF FF FF       ................
00F8D0: FF FF FF FF FF FF FF FF FF FF FF FF FF FF FF FF       ................
00F8E0: FF FF FF FF FF FF FF FF FF FF FF FF FF FF FF FF       ................
00F8F0: FF FF FF FF FF FF FF FF FF FF FF FF FF FF FF FF       ................
00F900: FF FF FF FF FF FF FF FF FF FF FF FF FF FF FF FF       ................
00F910: FF FF FF FF FF FF FF FF FF FF FF FF FF FF FF FF       ................
00F920: FF FF FF FF FF FF FF FF FF FF FF FF FF FF FF FF       ................
00F930: FF FF FF FF FF FF FF FF FF FF FF FF FF FF FF FF       ................
00F940: FF FF FF FF FF FF FF FF FF FF FF FF FF FF FF FF       ................
00F950: FF FF FF FF FF FF FF FF FF FF FF FF FF FF FF FF       ................
00F960: FF FF FF FF FF FF FF FF FF FF FF FF FF FF FF FF       ................
00F970: FF FF FF FF FF FF FF FF FF FF FF FF FF FF FF FF       ................
00F980: FF FF FF FF FF FF FF FF FF FF FF FF FF FF FF FF       ................
00F990: FF FF FF FF FF FF FF FF FF FF FF FF FF FF FF FF       ................
00F9A0: FF FF FF FF FF FF FF FF FF FF FF FF FF FF FF FF       ................
00F9B0: FF FF FF FF FF FF FF FF FF FF FF FF FF FF FF FF       ................
00F9C0: FF FF FF FF FF FF FF FF FF FF FF FF FF FF FF FF       ................
00F9D0: FF FF FF FF FF FF FF FF FF FF FF FF FF FF FF FF       ................
00F9E0: FF FF FF FF FF FF FF FF FF FF FF FF FF FF FF FF       ................
00F9F0: FF FF FF FF FF FF FF FF FF FF FF FF FF FF FF FF       ................
00FA00: FF FF FF FF FF FF FF FF FF FF FF FF FF FF FF FF       ................
00FA10: FF FF FF FF FF FF FF FF FF FF FF FF FF FF FF FF       ................
00FA20: FF FF FF FF FF FF FF FF FF FF FF FF FF FF FF FF       ................
00FA30: FF FF FF FF FF FF FF FF FF FF FF FF FF FF FF FF       ................
00FA40: FF FF FF FF FF FF FF FF FF FF FF FF FF FF FF FF       ................
00FA50: FF FF FF FF FF FF FF FF FF FF FF FF FF FF FF FF       ................
00FA60: FF FF FF FF FF FF FF FF FF FF FF FF FF FF FF FF       ................
00FA70: FF FF FF FF FF FF FF FF FF FF FF FF FF FF FF FF       ................
00FA80: FF FF FF FF FF FF FF FF FF FF FF FF FF FF FF FF       ................
00FA90: FF FF FF FF FF FF FF FF FF FF FF FF FF FF FF FF       ................
00FAA0: FF FF FF FF FF FF FF FF FF FF FF FF FF FF FF FF       ................
00FAB0: FF FF FF FF FF FF FF FF FF FF FF FF FF FF FF FF       ................
00FAC0: FF FF FF FF FF FF FF FF FF FF FF FF FF FF FF FF       ................
00FAD0: FF FF FF FF FF FF FF FF FF FF FF FF FF FF FF FF       ................
00FAE0: FF FF FF FF FF FF FF FF FF FF FF FF FF FF FF FF       ................
00FAF0: FF FF FF FF FF FF FF FF FF FF FF FF FF FF FF FF       ................
00FB00: FF FF FF FF FF FF FF FF FF FF FF FF FF FF FF FF       ................
00FB10: FF FF FF FF FF FF FF FF FF FF FF FF FF FF FF FF       ................
00FB20: FF FF FF FF FF FF FF FF FF FF FF FF FF FF FF FF       ................
00FB30: FF FF FF FF FF FF FF FF FF FF FF FF FF FF FF FF       ................
00FB40: FF FF FF FF FF FF FF FF FF FF FF FF FF FF FF FF       ................
00FB50: FF FF FF FF FF FF FF FF FF FF FF FF FF FF FF FF       ................
00FB60: FF FF FF FF FF FF FF FF FF FF FF FF FF FF FF FF       ................
00FB70: FF FF FF FF FF FF FF FF FF FF FF FF FF FF FF FF       ................
00FB80: FF FF FF FF FF FF FF FF FF FF FF FF FF FF FF FF       ................
00FB90: FF FF FF FF FF FF FF FF FF FF FF FF FF FF FF FF       ................
00FBA0: FF FF FF FF FF FF FF FF FF FF FF FF FF FF FF FF       ................
00FBB0: FF FF FF FF FF FF FF FF FF FF FF FF FF FF FF FF       ................
00FBC0: FF FF FF FF FF FF FF FF FF FF FF FF FF FF FF FF       ................
00FBD0: FF FF FF FF FF FF FF FF FF FF FF FF FF FF FF FF       ................
00FBE0: FF FF FF FF FF FF FF FF FF FF FF FF FF FF FF FF       ................
00FBF0: FF FF FF FF FF FF FF FF FF FF FF FF FF FF FF FF       ................
00FC00: FF FF FF FF FF FF FF FF FF FF FF FF FF FF FF FF       ................
00FC10: FF FF FF FF FF FF FF FF FF FF FF FF FF FF FF FF       ................
00FC20: FF FF FF FF FF FF FF FF FF FF FF FF FF FF FF FF       ................
00FC30: FF FF FF FF FF FF FF FF FF FF FF FF FF FF FF FF       ................
00FC40: FF FF FF FF FF FF FF FF FF FF FF FF FF FF FF FF       ................
00FC50: FF FF FF FF FF FF FF FF FF FF FF FF FF FF FF FF       ................
00FC60: FF FF FF FF FF FF FF FF FF FF FF FF FF FF FF FF       ................
00FC70: FF FF FF FF FF FF FF FF FF FF FF FF FF FF FF FF       ................
00FC80: FF FF FF FF FF FF FF FF FF FF FF FF FF FF FF FF       ................
00FC90: FF FF FF FF FF FF FF FF FF FF FF FF FF FF FF FF       ................
00FCA0: FF FF FF FF FF FF FF FF FF FF FF FF FF FF FF FF       ................
00FCB0: FF FF FF FF FF FF FF FF FF FF FF FF FF FF FF FF       ................
00FCC0: FF FF FF FF FF FF FF FF FF FF FF FF FF FF FF FF       ................
00FCD0: FF FF FF FF FF FF FF FF FF FF FF FF FF FF FF FF       ................
00FCE0: FF FF FF FF FF FF FF FF FF FF FF FF FF FF FF FF       ................
00FCF0: FF FF FF FF FF FF FF FF FF FF FF FF FF FF FF FF       ................
00FD00: FF FF FF FF FF FF FF FF FF FF FF FF FF FF FF FF       ................
00FD10: FF FF FF FF FF FF FF FF FF FF FF FF FF FF FF FF       ................
00FD20: FF FF FF FF FF FF FF FF FF FF FF FF FF FF FF FF       ................
00FD30: FF FF FF FF FF FF FF FF FF FF FF FF FF FF FF FF       ................
00FD40: FF FF FF FF FF FF FF FF FF FF FF FF FF FF FF FF       ................
00FD50: FF FF FF FF FF FF FF FF FF FF FF FF FF FF FF FF       ................
00FD60: FF FF FF FF FF FF FF FF FF FF FF FF FF FF FF FF       ................
00FD70: FF FF FF FF FF FF FF FF FF FF FF FF FF FF FF FF       ................
00FD80: FF FF FF FF FF FF FF FF FF FF FF FF FF FF FF FF       ................
00FD90: FF FF FF FF FF FF FF FF FF FF FF FF FF FF FF FF       ................
00FDA0: FF FF FF FF FF FF FF FF FF FF FF FF FF FF FF FF       ................
00FDB0: FF FF FF FF FF FF FF FF FF FF FF FF FF FF FF FF       ................
00FDC0: FF FF FF FF FF FF FF FF FF FF FF FF FF FF FF FF       ................
00FDD0: FF FF FF FF FF FF FF FF FF FF FF FF FF FF FF FF       ................
00FDE0: FF FF FF FF FF FF FF FF FF FF FF FF FF FF FF FF       ................
00FDF0: FF FF FF FF FF FF FF FF FF FF FF FF FF FF FF FF       ................
00FE00: FF FF FF FF FF FF FF FF FF FF FF FF FF FF FF FF       ................
00FE10: FF FF FF FF FF FF FF FF FF FF FF FF FF FF FF FF       ................
00FE20: FF FF FF FF FF FF FF FF FF FF FF FF FF FF FF FF       ................
00FE30: FF FF FF FF FF FF FF FF FF FF FF FF FF FF FF FF       ................
00FE40: FF FF FF FF FF FF FF FF FF FF FF FF FF FF FF FF       ................
00FE50: FF FF FF FF FF FF FF FF FF FF FF FF FF FF FF FF       ................
00FE60: FF FF FF FF FF FF FF FF FF FF FF FF FF FF FF FF       ................
00FE70: FF FF FF FF FF FF FF FF FF FF FF FF FF FF FF FF       ................
00FE80: FF FF FF FF FF FF FF FF FF FF FF FF FF FF FF FF       ................
00FE90: FF FF FF FF FF FF FF FF FF FF FF FF FF FF FF FF       ................
00FEA0: FF FF FF FF FF FF FF FF FF FF FF FF FF FF FF FF       ................
00FEB0: FF FF FF FF FF FF FF FF FF FF FF FF FF FF FF FF       ................
00FEC0: FF FF FF FF FF FF FF FF FF FF FF FF FF FF FF FF       ................
00FED0: FF FF FF FF FF FF FF FF FF FF FF FF FF FF FF FF       ................
00FEE0: FF FF FF FF FF FF FF FF FF FF FF FF FF FF FF FF       ................
00FEF0: FF FF FF FF FF FF FF FF FF FF FF FF FF FF FF FF       ................
00FF00: FF FF FF FF FF FF FF FF FF FF FF FF FF FF FF FF       ................
00FF10: FF FF FF FF FF FF FF FF FF FF FF FF FF FF FF FF       ................
00FF20: FF FF FF FF FF FF FF FF FF FF FF FF FF FF FF FF       ................
00FF30: FF FF FF FF FF FF FF FF FF FF FF FF FF FF FF FF       ................
00FF40: FF FF FF FF FF FF FF FF FF FF FF FF FF FF FF FF       ................
00FF50: FF FF FF FF FF FF FF FF FF FF FF FF FF FF FF FF       ................
00FF60: FF FF FF FF FF FF FF FF FF FF FF FF FF FF FF FF       ................
00FF70: FF FF FF FF FF FF FF FF FF FF FF FF FF FF FF FF       ................
00FF80: FF FF FF FF FF FF FF FF FF FF FF FF FF FF FF FF       ................
00FF90: FF FF FF FF FF FF FF FF FF FF FF FF FF FF FF FF       ................
00FFA0: FF FF FF FF FF FF FF FF FF FF FF FF FF FF FF FF       ................
00FFB0: FF FF FF FF FF FF FF FF FF FF FF FF FF FF FF FF       ................
00FFC0: FF FF FF FF FF FF FF FF FF FF FF FF FF FF FF FF       ................
00FFD0: FF FF FF FF FF FF FF FF FF FF FF FF FF FF FF FF       ................
00FFE0: FF FF FF FF FF FF FF FF FF FF FF FF FF FF FF FF       ................
00FFF0: FF FF FF FF FF FF FF FF FF FF FF FF FF FF FF          ...............

